
RFS_SENSOR.elf:     file format elf32-littlenios2
RFS_SENSOR.elf
architecture: nios2:r1, flags 0x00000112:
EXEC_P, HAS_SYMS, D_PAGED
start address 0x00020244

Program Header:
    LOAD off    0x00001000 vaddr 0x00020000 paddr 0x00020000 align 2**12
         filesz 0x00000020 memsz 0x00000020 flags r-x
    LOAD off    0x00001020 vaddr 0x00020020 paddr 0x00020020 align 2**12
         filesz 0x000149d4 memsz 0x000149d4 flags r-x
    LOAD off    0x000159f4 vaddr 0x000349f4 paddr 0x000364e4 align 2**12
         filesz 0x00001af0 memsz 0x00001af0 flags rw-
    LOAD off    0x00017fd4 vaddr 0x00037fd4 paddr 0x00037fd4 align 2**12
         filesz 0x00000000 memsz 0x000001a8 flags rw-

Sections:
Idx Name          Size      VMA       LMA       File off  Algn
  0 .entry        00000020  00020000  00020000  00001000  2**5
                  CONTENTS, ALLOC, LOAD, READONLY, CODE
  1 .exceptions   00000224  00020020  00020020  00001020  2**2
                  CONTENTS, ALLOC, LOAD, READONLY, CODE
  2 .text         00013da4  00020244  00020244  00001244  2**2
                  CONTENTS, ALLOC, LOAD, READONLY, CODE
  3 .rodata       00000a0c  00033fe8  00033fe8  00014fe8  2**2
                  CONTENTS, ALLOC, LOAD, READONLY, DATA
  4 .rwdata       00001af0  000349f4  000364e4  000159f4  2**2
                  CONTENTS, ALLOC, LOAD, DATA, SMALL_DATA
  5 .bss          000001a8  00037fd4  00037fd4  00017fd4  2**2
                  ALLOC, SMALL_DATA
  6 .onchip_memory2 00000000  0003817c  0003817c  000174e4  2**0
                  CONTENTS
  7 .comment      00000023  00000000  00000000  000174e4  2**0
                  CONTENTS, READONLY
  8 .debug_aranges 00001078  00000000  00000000  00017508  2**3
                  CONTENTS, READONLY, DEBUGGING
  9 .debug_info   000263dc  00000000  00000000  00018580  2**0
                  CONTENTS, READONLY, DEBUGGING
 10 .debug_abbrev 0000a025  00000000  00000000  0003e95c  2**0
                  CONTENTS, READONLY, DEBUGGING
 11 .debug_line   0000ca72  00000000  00000000  00048981  2**0
                  CONTENTS, READONLY, DEBUGGING
 12 .debug_frame  00002c18  00000000  00000000  000553f4  2**2
                  CONTENTS, READONLY, DEBUGGING
 13 .debug_str    00004179  00000000  00000000  0005800c  2**0
                  CONTENTS, READONLY, DEBUGGING
 14 .debug_loc    0001a61d  00000000  00000000  0005c185  2**0
                  CONTENTS, READONLY, DEBUGGING
 15 .debug_alt_sim_info 00000060  00000000  00000000  000767a4  2**2
                  CONTENTS, READONLY, DEBUGGING
 16 .debug_ranges 00001d70  00000000  00000000  00076808  2**3
                  CONTENTS, READONLY, DEBUGGING
 17 .thread_model 00000003  00000000  00000000  0007c0d2  2**0
                  CONTENTS, READONLY
 18 .cpu          0000000a  00000000  00000000  0007c0d5  2**0
                  CONTENTS, READONLY
 19 .qsys         00000001  00000000  00000000  0007c0df  2**0
                  CONTENTS, READONLY
 20 .simulation_enabled 00000001  00000000  00000000  0007c0e0  2**0
                  CONTENTS, READONLY
 21 .sysid_hash   00000004  00000000  00000000  0007c0e1  2**0
                  CONTENTS, READONLY
 22 .sysid_base   00000004  00000000  00000000  0007c0e5  2**0
                  CONTENTS, READONLY
 23 .sysid_time   00000004  00000000  00000000  0007c0e9  2**0
                  CONTENTS, READONLY
 24 .stderr_dev   00000009  00000000  00000000  0007c0ed  2**0
                  CONTENTS, READONLY
 25 .stdin_dev    00000009  00000000  00000000  0007c0f6  2**0
                  CONTENTS, READONLY
 26 .stdout_dev   00000009  00000000  00000000  0007c0ff  2**0
                  CONTENTS, READONLY
 27 .sopc_system_name 00000009  00000000  00000000  0007c108  2**0
                  CONTENTS, READONLY
 28 .quartus_project_dir 00000017  00000000  00000000  0007c111  2**0
                  CONTENTS, READONLY
 29 .jdi          00003efc  00000000  00000000  0007c128  2**0
                  CONTENTS, READONLY
 30 .sopcinfo     0005af36  00000000  00000000  00080024  2**0
                  CONTENTS, READONLY
SYMBOL TABLE:
00020000 l    d  .entry	00000000 .entry
00020020 l    d  .exceptions	00000000 .exceptions
00020244 l    d  .text	00000000 .text
00033fe8 l    d  .rodata	00000000 .rodata
000349f4 l    d  .rwdata	00000000 .rwdata
00037fd4 l    d  .bss	00000000 .bss
0003817c l    d  .onchip_memory2	00000000 .onchip_memory2
00000000 l    d  .comment	00000000 .comment
00000000 l    d  .debug_aranges	00000000 .debug_aranges
00000000 l    d  .debug_info	00000000 .debug_info
00000000 l    d  .debug_abbrev	00000000 .debug_abbrev
00000000 l    d  .debug_line	00000000 .debug_line
00000000 l    d  .debug_frame	00000000 .debug_frame
00000000 l    d  .debug_str	00000000 .debug_str
00000000 l    d  .debug_loc	00000000 .debug_loc
00000000 l    d  .debug_alt_sim_info	00000000 .debug_alt_sim_info
00000000 l    d  .debug_ranges	00000000 .debug_ranges
00000000 l    df *ABS*	00000000 ../RFS_SENSOR_bsp//obj/HAL/src/crt0.o
0002028c l       .text	00000000 alt_after_alt_main
00000000 l    df *ABS*	00000000 alt_irq_handler.c
00000000 l    df *ABS*	00000000 alt_instruction_exception_entry.c
00000000 l    df *ABS*	00000000 I2C_core.c
00000000 l    df *ABS*	00000000 light_sensor.c
000364a0 l     O .rwdata	00000004 Light_I2C_Controller_Base
00000000 l    df *ABS*	00000000 main.c
00000000 l    df *ABS*	00000000 mpu9250.c
00000000 l    df *ABS*	00000000 rh_temp.c
00000000 l    df *ABS*	00000000 lib2-divmod.c
00000000 l    df *ABS*	00000000 addsf3.c
00000000 l    df *ABS*	00000000 divsf3.c
00000000 l    df *ABS*	00000000 mulsf3.c
00000000 l    df *ABS*	00000000 subsf3.c
00000000 l    df *ABS*	00000000 floatsisf.c
00000000 l    df *ABS*	00000000 floatunsisf.c
00000000 l    df *ABS*	00000000 adddf3.c
00000000 l    df *ABS*	00000000 divdf3.c
00000000 l    df *ABS*	00000000 muldf3.c
00000000 l    df *ABS*	00000000 subdf3.c
00000000 l    df *ABS*	00000000 extendsfdf2.c
00000000 l    df *ABS*	00000000 truncdfsf2.c
00000000 l    df *ABS*	00000000 libgcc2.c
00000000 l    df *ABS*	00000000 libgcc2.c
00000000 l    df *ABS*	00000000 printf.c
00000000 l    df *ABS*	00000000 puts.c
00000000 l    df *ABS*	00000000 strlen.c
00000000 l    df *ABS*	00000000 vfprintf.c
00034842 l     O .rodata	00000010 zeroes.4404
0002953c l     F .text	000000bc __sbprintf
00034852 l     O .rodata	00000010 blanks.4403
00000000 l    df *ABS*	00000000 wsetup.c
00000000 l    df *ABS*	00000000 dtoa.c
0002974c l     F .text	00000200 quorem
00000000 l    df *ABS*	00000000 fflush.c
00000000 l    df *ABS*	00000000 findfp.c
0002b27c l     F .text	00000008 __fp_unlock
0002b290 l     F .text	0000019c __sinit.part.1
0002b42c l     F .text	00000008 __fp_lock
00000000 l    df *ABS*	00000000 mallocr.c
00000000 l    df *ABS*	00000000 fvwrite.c
00000000 l    df *ABS*	00000000 fwalk.c
00000000 l    df *ABS*	00000000 impure.c
000349f4 l     O .rwdata	00000424 impure_data
00000000 l    df *ABS*	00000000 locale.c
00034e38 l     O .rwdata	00000020 lc_ctype_charset
00034e18 l     O .rwdata	00000020 lc_message_charset
00034e58 l     O .rwdata	00000038 lconv
00000000 l    df *ABS*	00000000 makebuf.c
00000000 l    df *ABS*	00000000 mallocr.c
00000000 l    df *ABS*	00000000 memchr.c
00000000 l    df *ABS*	00000000 memcpy.c
00000000 l    df *ABS*	00000000 memmove.c
00000000 l    df *ABS*	00000000 memset.c
00000000 l    df *ABS*	00000000 mprec.c
00034884 l     O .rodata	0000000c p05.2768
00000000 l    df *ABS*	00000000 mallocr.c
00000000 l    df *ABS*	00000000 s_fpclassify.c
00000000 l    df *ABS*	00000000 sbrkr.c
00000000 l    df *ABS*	00000000 stdio.c
00000000 l    df *ABS*	00000000 strcmp.c
00000000 l    df *ABS*	00000000 vfprintf.c
0002e828 l     F .text	000000fc __sprint_r.part.0
000349b8 l     O .rodata	00000010 blanks.4348
000349a8 l     O .rodata	00000010 zeroes.4349
0002fdb4 l     F .text	000000bc __sbprintf
00000000 l    df *ABS*	00000000 writer.c
00000000 l    df *ABS*	00000000 closer.c
00000000 l    df *ABS*	00000000 mallocr.c
00000000 l    df *ABS*	00000000 fclose.c
00000000 l    df *ABS*	00000000 fputwc.c
00000000 l    df *ABS*	00000000 fstatr.c
00000000 l    df *ABS*	00000000 int_errno.c
00000000 l    df *ABS*	00000000 isattyr.c
00000000 l    df *ABS*	00000000 lseekr.c
00000000 l    df *ABS*	00000000 readr.c
00000000 l    df *ABS*	00000000 wbuf.c
00000000 l    df *ABS*	00000000 wcrtomb.c
00000000 l    df *ABS*	00000000 wctomb_r.c
00000000 l    df *ABS*	00000000 libgcc2.c
00000000 l    df *ABS*	00000000 libgcc2.c
00000000 l    df *ABS*	00000000 eqdf2.c
00000000 l    df *ABS*	00000000 gedf2.c
00000000 l    df *ABS*	00000000 ledf2.c
00000000 l    df *ABS*	00000000 fixdfsi.c
00000000 l    df *ABS*	00000000 floatsidf.c
00000000 l    df *ABS*	00000000 floatunsidf.c
00000000 l    df *ABS*	00000000 alt_close.c
000316b0 l     F .text	0000003c alt_get_errno
00000000 l    df *ABS*	00000000 alt_dev.c
000317bc l     F .text	0000002c alt_dev_null_write
00000000 l    df *ABS*	00000000 alt_errno.c
00000000 l    df *ABS*	00000000 alt_fstat.c
000317e8 l     F .text	0000003c alt_get_errno
00000000 l    df *ABS*	00000000 alt_isatty.c
000318d4 l     F .text	0000003c alt_get_errno
00000000 l    df *ABS*	00000000 alt_load.c
000319b4 l     F .text	00000068 alt_load_section
00000000 l    df *ABS*	00000000 alt_lseek.c
00031aa0 l     F .text	0000003c alt_get_errno
00000000 l    df *ABS*	00000000 alt_main.c
00000000 l    df *ABS*	00000000 alt_malloc_lock.c
00000000 l    df *ABS*	00000000 alt_read.c
00031c74 l     F .text	0000003c alt_get_errno
00000000 l    df *ABS*	00000000 alt_release_fd.c
00000000 l    df *ABS*	00000000 alt_sbrk.c
000364d4 l     O .rwdata	00000004 heap_end
00000000 l    df *ABS*	00000000 alt_tick.c
00000000 l    df *ABS*	00000000 alt_usleep.c
00000000 l    df *ABS*	00000000 alt_write.c
00032094 l     F .text	0000003c alt_get_errno
00000000 l    df *ABS*	00000000 alt_sys_init.c
000321c8 l     F .text	00000034 alt_dev_reg
00035440 l     O .rwdata	00001060 jtag_uart
00000000 l    df *ABS*	00000000 altera_avalon_jtag_uart_fd.c
00000000 l    df *ABS*	00000000 altera_avalon_jtag_uart_init.c
000324bc l     F .text	0000020c altera_avalon_jtag_uart_irq
000326c8 l     F .text	000000a0 altera_avalon_jtag_uart_timeout
00000000 l    df *ABS*	00000000 altera_avalon_jtag_uart_ioctl.c
00000000 l    df *ABS*	00000000 altera_avalon_jtag_uart_read.c
00000000 l    df *ABS*	00000000 altera_avalon_jtag_uart_write.c
00000000 l    df *ABS*	00000000 altera_avalon_timer_sc.c
00032d00 l     F .text	00000078 alt_avalon_timer_sc_irq
00000000 l    df *ABS*	00000000 alt_alarm_start.c
00000000 l    df *ABS*	00000000 alt_busy_sleep.c
00000000 l    df *ABS*	00000000 alt_dcache_flush_all.c
00000000 l    df *ABS*	00000000 alt_dev_llist_insert.c
000330c0 l     F .text	0000003c alt_get_errno
00000000 l    df *ABS*	00000000 alt_do_ctors.c
00000000 l    df *ABS*	00000000 alt_do_dtors.c
00000000 l    df *ABS*	00000000 alt_icache_flush_all.c
00000000 l    df *ABS*	00000000 alt_iic.c
00000000 l    df *ABS*	00000000 alt_iic_isr_register.c
00000000 l    df *ABS*	00000000 alt_io_redirect.c
00033534 l     F .text	000000c4 alt_open_fd
00000000 l    df *ABS*	00000000 alt_irq_vars.c
00000000 l    df *ABS*	00000000 alt_open.c
00033674 l     F .text	0000003c alt_get_errno
000336b0 l     F .text	000000c4 alt_file_locked
00000000 l    df *ABS*	00000000 altera_nios2_gen2_irq.c
00000000 l    df *ABS*	00000000 alt_find_dev.c
00000000 l    df *ABS*	00000000 alt_find_file.c
00000000 l    df *ABS*	00000000 alt_get_fd.c
00000000 l    df *ABS*	00000000 alt_icache_flush.c
00000000 l    df *ABS*	00000000 atexit.c
00000000 l    df *ABS*	00000000 exit.c
00000000 l    df *ABS*	00000000 memcmp.c
00000000 l    df *ABS*	00000000 __atexit.c
00000000 l    df *ABS*	00000000 __call_atexit.c
00000000 l    df *ABS*	00000000 alt_exit.c
00038014 g     O .bss	00000004 alt_instruction_exception_handler
0002de6c g     F .text	00000074 _mprec_log10
0002df58 g     F .text	0000008c __any_on
00030350 g     F .text	00000054 _isatty_r
00034890 g     O .rodata	00000028 __mprec_tinytens
00031bb0 g     F .text	0000007c alt_main
000271bc g     F .text	000000c0 _puts_r
0003807c g     O .bss	00000100 alt_irq
000303a4 g     F .text	00000060 _lseek_r
00020604 g     F .text	00000068 ACK_check
000364e4 g       *ABS*	00000000 __flash_rwdata_start
00020578 g     F .text	0000008c ACK_single_check
00031254 g     F .text	00000088 .hidden __eqdf2
0003817c g       *ABS*	00000000 __alt_heap_start
000218c4 g     F .text	00000074 I2C_Write_Light
00027180 g     F .text	0000003c printf
000305bc g     F .text	0000009c _wcrtomb_r
0002e6e8 g     F .text	0000005c __sseek
0002b5cc g     F .text	00000010 __sinit
00030464 g     F .text	00000140 __swbuf_r
00022004 g     F .text	000001b4 MPU9250_initialize
0002c094 g     F .text	0000007c _setlocale_r
0002b434 g     F .text	00000068 __sfmoreglue
00038040 g     O .bss	0000000c accelerometer_data
00031c50 g     F .text	00000024 __malloc_unlock
00023d58 g     F .text	00000440 .hidden __divsf3
00021d80 g     F .text	0000005c ReadRegs
0002176c g     F .text	0000004c Light_SetThreshHigh
0002cd64 g     F .text	0000015c memmove
0002066c g     F .text	0000024c OC_I2C_Write
0002b5b4 g     F .text	00000018 _cleanup
0002cfe8 g     F .text	000000a8 _Balloc
000312dc g     F .text	000000dc .hidden __gtdf2
000338c8 g     F .text	00000024 altera_nios2_gen2_irq_init
00022ec0 g     F .text	000000a4 RH_Temp_Init
00020000 g     F .entry	0000001c __reset
00020020 g       *ABS*	00000000 __flash_exceptions_start
000302f4 g     F .text	0000005c _fstat_r
00037ff8 g     O .bss	00000004 errno
0002e664 g     F .text	00000008 __seofread
00038000 g     O .bss	00000004 alt_argv
0003e4a0 g       *ABS*	00000000 _gp
0002144c g     F .text	000000f8 Light_Get_ADCData0
00032064 g     F .text	00000030 usleep
00024594 g     F .text	000004e4 .hidden __subsf3
000226a4 g     F .text	000000d4 read_temp
000352c0 g     O .rwdata	00000180 alt_fd_list
00021a18 g     F .text	0000015c Sensor_Report
00023004 g     F .text	0000003c RH_Temp_Sensor_Init
000338ec g     F .text	00000090 alt_find_dev
0002cc1c g     F .text	00000148 memcpy
00020398 g     F .text	0000014c oc_i2c_init_ex
0002b284 g     F .text	0000000c _cleanup_r
0003152c g     F .text	000000dc .hidden __floatsidf
000335f8 g     F .text	0000007c alt_io_redirect
000313b8 g     F .text	000000f4 .hidden __ltdf2
00033fe8 g       *ABS*	00000000 __DTOR_END__
0002727c g     F .text	00000014 puts
00033bb8 g     F .text	0000009c alt_exception_cause_generated_bad_addr
000213dc g     F .text	00000070 Light_PowerSwitch
0002e548 g     F .text	00000074 __fpclassifyd
0002ddc8 g     F .text	000000a4 __ratio
0002fd98 g     F .text	0000001c __vfiprintf_internal
000328c0 g     F .text	0000021c altera_avalon_jtag_uart_read
00027150 g     F .text	00000030 _printf_r
000237d4 g     F .text	00000064 .hidden __udivsi3
00031910 g     F .text	000000a4 isatty
000348e0 g     O .rodata	000000c8 __mprec_tens
0002c110 g     F .text	0000000c __locale_charset
00033b28 g     F .text	00000090 alt_icache_flush
00037ff4 g     O .bss	00000004 __malloc_top_pad
000222b8 g     F .text	0000011c calib_mag
000364ac g     O .rwdata	00000004 __mb_cur_max
0002c140 g     F .text	0000000c _localeconv_r
0002d3f4 g     F .text	0000003c __i2b
0002ba50 g     F .text	000004bc __sfvwrite_r
0002e5bc g     F .text	00000054 _sbrk_r
00030404 g     F .text	00000060 _read_r
000364cc g     O .rwdata	00000004 alt_max_fd
0002ffe8 g     F .text	000000f0 _fclose_r
0002b24c g     F .text	00000030 fflush
00037ff0 g     O .bss	00000004 __malloc_max_sbrked_mem
000219a8 g     F .text	00000070 I2C_Read_Light
00026e34 g     F .text	00000110 .hidden __extendsfdf2
00037fd4 g     O .bss	00000004 temperature
00024c8c g     F .text	000008ac .hidden __adddf3
0002db70 g     F .text	0000010c __b2d
00030d1c g     F .text	00000538 .hidden __umoddi3
00031adc g     F .text	000000d4 lseek
000364a4 g     O .rwdata	00000004 _global_impure_ptr
0002dfe4 g     F .text	00000564 _realloc_r
0003817c g       *ABS*	00000000 __bss_end
00033444 g     F .text	000000f0 alt_iic_isr_register
00031f5c g     F .text	00000108 alt_tick
000234dc g     F .text	000000f8 th_dump_chip_info
000307a4 g     F .text	00000578 .hidden __udivdi3
00030250 g     F .text	00000024 _fputwc_r
000348b8 g     O .rodata	00000028 __mprec_bigtens
0002d1d8 g     F .text	00000104 __s2b
00031608 g     F .text	000000a8 .hidden __floatunsidf
0002d8b0 g     F .text	00000060 __mcmp
0002b5ec g     F .text	00000018 __fp_lock_all
000333f8 g     F .text	0000004c alt_ic_irq_enabled
00023364 g     F .text	0000013c th_Read_Measure_Data
00020d58 g     F .text	0000026c OC_I2CL_Write
00031ec0 g     F .text	0000009c alt_alarm_stop
00038010 g     O .bss	00000004 alt_irq_active
0002180c g     F .text	00000064 Light_GetInterrupt
000208b8 g     F .text	00000064 ACK_judge_for_read
000200fc g     F .exceptions	000000d4 alt_irq_handler
00035298 g     O .rwdata	00000028 alt_dev_null
00020290 g     F .text	00000058 Write32_Data
00021378 g     F .text	00000064 Light_GetTiming
00033078 g     F .text	00000048 alt_dcache_flush_all
0002d2dc g     F .text	00000068 __hi0bits
000314ac g     F .text	00000080 .hidden __fixdfsi
00022d18 g     F .text	000000f0 getMotion9
000364e4 g       *ABS*	00000000 __ram_rwdata_end
000364c4 g     O .rwdata	00000008 alt_dev_list
000320d0 g     F .text	000000f8 write
0003804c g     O .bss	0000000c calib_data
000349f4 g       *ABS*	00000000 __ram_rodata_end
00031824 g     F .text	000000b0 fstat
000313b8 g     F .text	000000f4 .hidden __ledf2
0002d628 g     F .text	00000140 __pow5mult
0002e93c g     F .text	0000145c ___vfiprintf_internal_r
00037fe8 g     O .bss	00000004 __nlocale_changed
00023838 g     F .text	00000058 .hidden __umodsi3
0003817c g       *ABS*	00000000 end
00022778 g     F .text	00000130 read_mag
000323fc g     F .text	000000c0 altera_avalon_jtag_uart_init
000201d0 g     F .exceptions	00000074 alt_instruction_exception_entry
00033fe8 g       *ABS*	00000000 __CTOR_LIST__
0003f400 g       *ABS*	00000000 __alt_stack_pointer
00032d78 g     F .text	0000007c alt_avalon_timer_sc_init
000270ec g     F .text	00000064 .hidden __clzsi2
00032adc g     F .text	00000224 altera_avalon_jtag_uart_write
0002b5dc g     F .text	00000004 __sfp_lock_acquire
0002cb38 g     F .text	000000e4 memchr
00027328 g     F .text	000021f8 ___vfprintf_internal_r
0002b740 g     F .text	00000310 _free_r
0002c11c g     F .text	00000010 __locale_mb_cur_max
00033e34 g     F .text	00000180 __call_exitprocs
00022f64 g     F .text	000000a0 RH_Temp_Read_Device_ID
00037fe4 g     O .bss	00000004 __mlocale_changed
000364b0 g     O .rwdata	00000004 __malloc_sbrk_base
00020244 g     F .text	0000004c _start
00038008 g     O .bss	00000004 _alt_tick_rate
0002d768 g     F .text	00000148 __lshift
0003800c g     O .bss	00000004 _alt_nticks
00031cb0 g     F .text	000000fc read
00021d20 g     F .text	00000060 ReadReg
00032234 g     F .text	00000064 alt_sys_init
00024a78 g     F .text	00000124 .hidden __floatsisf
00033d1c g     F .text	00000118 __register_exitproc
00021938 g     F .text	00000070 I2C_Write_Light16
00038058 g     O .bss	0000000c gyroscope_data
0002d430 g     F .text	000001f8 __multiply
00038064 g     O .bss	0000000c magnetometer_ASA
00032768 g     F .text	00000068 altera_avalon_jtag_uart_close
000349f4 g       *ABS*	00000000 __ram_rwdata_start
00033fe8 g       *ABS*	00000000 __ram_rodata_start
00038018 g     O .bss	00000028 __malloc_current_mallinfo
0002dc7c g     F .text	0000014c __d2b
000235d4 g     F .text	00000078 th_write_register
00021ddc g     F .text	00000110 set_acc_scale
00032298 g     F .text	00000060 altera_avalon_jtag_uart_read_fd
00033a84 g     F .text	000000a4 alt_get_fd
00032f20 g     F .text	00000158 alt_busy_sleep
0002fed0 g     F .text	00000054 _close_r
000212b4 g     F .text	00000060 Light_Init
00038070 g     O .bss	0000000c magnetometer_data
00033ca0 g     F .text	0000007c memcmp
00032358 g     F .text	00000050 altera_avalon_jtag_uart_close_fd
0003817c g       *ABS*	00000000 __alt_stack_base
000323a8 g     F .text	00000054 altera_avalon_jtag_uart_ioctl_fd
000295f8 g     F .text	00000154 __swsetup_r
00020340 g     F .text	00000058 oc_i2c_init
00021314 g     F .text	00000064 Light_GetID
00025538 g     F .text	000008e8 .hidden __divdf3
0002b49c g     F .text	00000118 __sfp
0002dee0 g     F .text	00000078 __copybits
00034e90 g     O .rwdata	00000408 __malloc_av_
0002b5e8 g     F .text	00000004 __sinit_lock_release
00025e20 g     F .text	00000718 .hidden __muldf3
0002e610 g     F .text	00000054 __sread
0003397c g     F .text	00000108 alt_find_file
000330fc g     F .text	000000a4 alt_dev_llist_insert
0002364c g     F .text	00000090 th_read_register
00031c2c g     F .text	00000024 __malloc_lock
00031e10 g     F .text	000000b0 sbrk
0002b1f0 g     F .text	0000005c _fflush_r
0002ff24 g     F .text	000000c4 _calloc_r
00023040 g     F .text	00000158 RH_Temp_Sensor_Read
00021720 g     F .text	0000004c Light_SetThreshLow
00037fd4 g       *ABS*	00000000 __bss_start
0002cec0 g     F .text	00000128 memset
00021b74 g     F .text	000000c4 main
00038004 g     O .bss	00000004 alt_envp
00037fec g     O .bss	00000004 __malloc_max_total_mem
000322f8 g     F .text	00000060 altera_avalon_jtag_uart_write_fd
000305a4 g     F .text	00000018 __swbuf
0002e744 g     F .text	00000008 __sclose
0003f400 g       *ABS*	00000000 __alt_heap_limit
000300d8 g     F .text	00000014 fclose
00026f44 g     F .text	000001a8 .hidden __truncdfsf2
0002994c g     F .text	00001688 _dtoa_r
0002c32c g     F .text	0000080c _malloc_r
00030718 g     F .text	00000030 __ascii_wctomb
000364d0 g     O .rwdata	00000004 alt_errno
0002163c g     F .text	000000e4 Get_light
0002bf0c g     F .text	000000c4 _fwalk
00023198 g     F .text	00000134 Read_Configuration
000236dc g     F .text	00000084 .hidden __divsi3
000228a8 g     F .text	00000470 read_all
000204e4 g     F .text	00000094 oc_i2c_uninit
0002b61c g     F .text	00000124 _malloc_trim_r
00033fe8 g       *ABS*	00000000 __CTOR_END__
00024198 g     F .text	000003fc .hidden __mulsf3
0002e74c g     F .text	000000dc strcmp
00033fe8 g       *ABS*	00000000 __flash_rodata_start
00033fe8 g       *ABS*	00000000 __DTOR_LIST__
00031254 g     F .text	00000088 .hidden __nedf2
000321fc g     F .text	00000038 alt_irq_init
00031dac g     F .text	00000064 alt_release_fd
000346fb g     O .rodata	00000100 .hidden __clz_tab
00037fe0 g     O .bss	00000004 _PathLocale
00033c54 g     F .text	00000014 atexit
0002fe70 g     F .text	00000060 _write_r
0002c14c g     F .text	00000018 setlocale
000234a0 g     F .text	0000003c th_reset
000364a8 g     O .rwdata	00000004 _impure_ptr
00037ffc g     O .bss	00000004 alt_argc
0002afd4 g     F .text	0000021c __sflush_r
00033200 g     F .text	00000060 _do_dtors
0002c138 g     F .text	00000008 __locale_cjk_lang
00020020 g       .exceptions	00000000 alt_irq_entry
0002db0c g     F .text	00000064 __ulp
0002b604 g     F .text	00000018 __fp_unlock_all
00021544 g     F .text	000000f8 Light_Get_ADCData1
00037fd8 g     O .bss	00000004 gyro_divider
000364bc g     O .rwdata	00000008 alt_fs_list
000202e8 g     F .text	00000058 Read32_Data
00022e08 g     F .text	000000b8 getMotion6
00021eec g     F .text	00000118 set_gyro_scale
0002091c g     F .text	000001ec OC_I2C_Read
00020020 g       *ABS*	00000000 __ram_exceptions_start
0002c164 g     F .text	0000000c localeconv
00020000 g       *ABS*	00000000 __alt_mem_onchip_memory2
00033294 g     F .text	00000050 alt_ic_isr_register
00021870 g     F .text	00000054 Light_SetTiming
000364e4 g       *ABS*	00000000 _edata
0003817c g       *ABS*	00000000 _end
000300ec g     F .text	00000164 __fputwc
00020244 g       *ABS*	00000000 __ram_exceptions_end
000327d0 g     F .text	000000f0 altera_avalon_jtag_uart_ioctl
00021c90 g     F .text	00000090 WriteReg
0003336c g     F .text	0000008c alt_ic_irq_disable
0002e66c g     F .text	0000007c __swrite
000364b4 g     O .rwdata	00000004 __malloc_trim_threshold
00020c10 g     F .text	00000148 OC_I2C_Read_Continue
0002c12c g     F .text	0000000c __locale_msgcharset
00033c68 g     F .text	00000038 exit
0002bfd0 g     F .text	000000c4 _fwalk_reent
00024b9c g     F .text	000000f0 .hidden __floatunsisf
0002d910 g     F .text	000001fc __mdiff
00023760 g     F .text	00000074 .hidden __modsi3
0003f400 g       *ABS*	00000000 __alt_data_end
00020020 g     F .exceptions	00000000 alt_exception
0002b5e0 g     F .text	00000004 __sfp_lock_release
0002253c g     F .text	00000168 read_gyro
00021c38 g     F .text	00000058 MPU9250_Init
000232cc g     F .text	00000098 Write_Configuration
00020fc4 g     F .text	000002f0 OC_I2CL_Read
00033fb4 g     F .text	00000034 _exit
00032df4 g     F .text	0000012c alt_alarm_start
0002c170 g     F .text	000001bc __smakebuf_r
00027290 g     F .text	00000098 strlen
00033774 g     F .text	00000154 open
000312dc g     F .text	000000dc .hidden __gedf2
00037fdc g     O .bss	00000004 acc_divider
000364b8 g     O .rwdata	00000004 __wctomb
0002e924 g     F .text	00000018 __sprint_r
00033260 g     F .text	00000034 alt_icache_flush_all
000223d4 g     F .text	00000168 read_acc
000364e0 g     O .rwdata	00000004 alt_priority_mask
000221b8 g     F .text	00000100 calib_acc
000332e4 g     F .text	00000088 alt_ic_irq_enable
00020b08 g     F .text	00000108 OC_I2C_Write_Addr
00029520 g     F .text	0000001c __vfprintf_internal
00030748 g     F .text	0000005c _wctomb_r
00026538 g     F .text	000008fc .hidden __subdf3
0002d344 g     F .text	000000b0 __lo0bits
000364d8 g     O .rwdata	00000008 alt_alarm_list
000331a0 g     F .text	00000060 _do_ctors
00030658 g     F .text	000000c0 wcrtomb
000316ec g     F .text	000000d0 close
00023890 g     F .text	000004c8 .hidden __addsf3
000217b8 g     F .text	00000054 Light_SetInterrupt
00031a1c g     F .text	00000084 alt_load
00030274 g     F .text	00000080 fputwc
0002b5e4 g     F .text	00000004 __sinit_lock_acquire
0002d0b8 g     F .text	00000120 __multadd
0002d090 g     F .text	00000028 _Bfree



Disassembly of section .entry:

00020000 <__reset>:
#if NIOS2_ICACHE_SIZE > 0 && defined(ALT_ALLOW_CODE_AT_RESET) && (!defined(ALT_SIM_OPTIMIZE) || defined(NIOS2_ECC_PRESENT))
    /* Assume the instruction cache size is always a power of two. */
#if NIOS2_ICACHE_SIZE > 0x8000
    movhi r2, %hi(NIOS2_ICACHE_SIZE)
#else
    movui r2, NIOS2_ICACHE_SIZE
   20000:	00840014 	movui	r2,4096
#endif

0:
    initi r2
   20004:	1001483a 	initi	r2
    addi r2, r2, -NIOS2_ICACHE_LINE_SIZE
   20008:	10bff804 	addi	r2,r2,-32
    bgt r2, zero, 0b
   2000c:	00bffd16 	blt	zero,r2,20004 <__alt_data_end+0xfffe0c04>
 * Jump to the _start entry point in the .text section if reset code
 * is allowed or if optimizing for RTL simulation.
 */
#if defined(ALT_ALLOW_CODE_AT_RESET) || defined(ALT_SIM_OPTIMIZE)
    /* Jump to the _start entry point in the .text section. */
    movhi r1, %hi(_start)
   20010:	004000b4 	movhi	at,2
    ori r1, r1, %lo(_start)
   20014:	08409114 	ori	at,at,580
    jmp r1
   20018:	0800683a 	jmp	at
   2001c:	00000000 	call	0 <__alt_mem_onchip_memory2-0x20000>

Disassembly of section .exceptions:

00020020 <alt_exception>:

#else /* ALT_EXCEPTION_STACK disabled */
        /* 
         * Reserve space on normal stack for registers about to be pushed.
         */
        addi  sp, sp, -76
   20020:	deffed04 	addi	sp,sp,-76
         * documentation for details).
         *
         * Leave a gap in the stack frame at 4(sp) for the muldiv handler to
         * store zero into.
         */
        stw   ra,  0(sp)
   20024:	dfc00015 	stw	ra,0(sp)
        stw   r1,   8(sp)
   20028:	d8400215 	stw	at,8(sp)
        stw   r2,  12(sp)
   2002c:	d8800315 	stw	r2,12(sp)
        stw   r3,  16(sp)
   20030:	d8c00415 	stw	r3,16(sp)
        stw   r4,  20(sp)
   20034:	d9000515 	stw	r4,20(sp)
        stw   r5,  24(sp)
   20038:	d9400615 	stw	r5,24(sp)
        stw   r6,  28(sp)
   2003c:	d9800715 	stw	r6,28(sp)
        stw   r7,  32(sp)
   20040:	d9c00815 	stw	r7,32(sp)
        rdctl r5, estatus   /* Read early to avoid usage stall */
   20044:	000b307a 	rdctl	r5,estatus
        stw   r8,  36(sp)
   20048:	da000915 	stw	r8,36(sp)
        stw   r9,  40(sp)
   2004c:	da400a15 	stw	r9,40(sp)
        stw   r10, 44(sp)
   20050:	da800b15 	stw	r10,44(sp)
        stw   r11, 48(sp)
   20054:	dac00c15 	stw	r11,48(sp)
        stw   r12, 52(sp)
   20058:	db000d15 	stw	r12,52(sp)
        stw   r13, 56(sp)
   2005c:	db400e15 	stw	r13,56(sp)
        stw   r14, 60(sp)
   20060:	db800f15 	stw	r14,60(sp)
        stw   r15, 64(sp)
   20064:	dbc01015 	stw	r15,64(sp)
        /*
         * ea-4 contains the address of the instruction being executed
         * when the exception occured. For interrupt exceptions, we will
         * will be re-issue the isntruction. Store it in 72(sp)
         */
        stw   r5,  68(sp)  /* estatus */
   20068:	d9401115 	stw	r5,68(sp)
        addi  r15, ea, -4  /* instruction that caused exception */
   2006c:	ebffff04 	addi	r15,ea,-4
        stw   r15,  72(sp)
   20070:	dbc01215 	stw	r15,72(sp)
#else
        /*
         * Test to see if the exception was a software exception or caused 
         * by an external interrupt, and vector accordingly.
         */
        rdctl r4, ipending
   20074:	0009313a 	rdctl	r4,ipending
        andi  r2, r5, 1
   20078:	2880004c 	andi	r2,r5,1
        beq   r2, zero, .Lnot_irq
   2007c:	10000326 	beq	r2,zero,2008c <alt_exception+0x6c>
        beq   r4, zero, .Lnot_irq
   20080:	20000226 	beq	r4,zero,2008c <alt_exception+0x6c>
        /*
         * Now that all necessary registers have been preserved, call 
         * alt_irq_handler() to process the interrupts.
         */

        call alt_irq_handler
   20084:	00200fc0 	call	200fc <alt_irq_handler>

        .section .exceptions.irqreturn, "xa"

        br    .Lexception_exit
   20088:	00000706 	br	200a8 <alt_exception+0x88>
         * upon completion, so we write ea (address of instruction *after*
         * the one where the exception occured) into 72(sp). The actual
         * instruction that caused the exception is written in r2, which these
         * handlers will utilize.
         */
        stw ea, 72(sp) /* EA is PC+4 so will skip over instruction causing exception */
   2008c:	df401215 	stw	ea,72(sp)
.Lunknown_16bit:
        addi.n r4, r4, 2 /* Need PC+2 to skip over instruction causing exception */
        stw r4, 72(sp)

#else /* CDX is not Enabled and all instructions are 32bits */
        ldw r2, -4(ea) /* Instruction value that caused exception */
   20090:	e8bfff17 	ldw	r2,-4(ea)
         * debugger is present) or go into an infinite loop since the
         * handling behavior is undefined; in that case we will not return here.
         */

        /* Load exception-causing address as first argument (r4) */
        addi   r4, ea, -4
   20094:	e93fff04 	addi	r4,ea,-4

        /* Call the instruction-exception entry */
        call   alt_instruction_exception_entry
   20098:	00201d00 	call	201d0 <alt_instruction_exception_entry>
         * instruction
         *
         * Return code was 0: Skip. The instruction after the exception is
         * already stored in 72(sp).
         */
        bne   r2, r0, .Lexception_exit
   2009c:	1000021e 	bne	r2,zero,200a8 <alt_exception+0x88>

        /*
         * Otherwise, modify 72(sp) to re-issue the instruction that caused the
         * exception.
         */
        addi  r15, ea, -4  /* instruction that caused exception */
   200a0:	ebffff04 	addi	r15,ea,-4
        stw   r15,  72(sp)
   200a4:	dbc01215 	stw	r15,72(sp)
        /* 
         * Restore the saved registers, so that all general purpose registers 
         * have been restored to their state at the time the interrupt occured.
         */

        ldw   r5,  68(sp)
   200a8:	d9401117 	ldw	r5,68(sp)
        ldw   ea,  72(sp)  /* This becomes the PC once eret is executed */
   200ac:	df401217 	ldw	ea,72(sp)
        ldw   ra,   0(sp)
   200b0:	dfc00017 	ldw	ra,0(sp)

        wrctl estatus, r5
   200b4:	2801707a 	wrctl	estatus,r5

        ldw   r1,   8(sp)
   200b8:	d8400217 	ldw	at,8(sp)
        ldw   r2,  12(sp)
   200bc:	d8800317 	ldw	r2,12(sp)
        ldw   r3,  16(sp)
   200c0:	d8c00417 	ldw	r3,16(sp)
        ldw   r4,  20(sp)
   200c4:	d9000517 	ldw	r4,20(sp)
        ldw   r5,  24(sp)
   200c8:	d9400617 	ldw	r5,24(sp)
        ldw   r6,  28(sp)
   200cc:	d9800717 	ldw	r6,28(sp)
        ldw   r7,  32(sp)
   200d0:	d9c00817 	ldw	r7,32(sp)

#if defined(ALT_EXCEPTION_STACK) && defined(ALT_STACK_CHECK)
        ldw   et, %gprel(alt_exception_old_stack_limit)(gp)
#endif

        ldw   r8,  36(sp)
   200d4:	da000917 	ldw	r8,36(sp)
        ldw   r9,  40(sp)
   200d8:	da400a17 	ldw	r9,40(sp)
        ldw   r10, 44(sp)
   200dc:	da800b17 	ldw	r10,44(sp)
        ldw   r11, 48(sp)
   200e0:	dac00c17 	ldw	r11,48(sp)
        ldw   r12, 52(sp)
   200e4:	db000d17 	ldw	r12,52(sp)
        ldw   r13, 56(sp)
   200e8:	db400e17 	ldw	r13,56(sp)
        ldw   r14, 60(sp)
   200ec:	db800f17 	ldw	r14,60(sp)
        ldw   r15, 64(sp)
   200f0:	dbc01017 	ldw	r15,64(sp)
        stw   et, %gprel(alt_stack_limit_value)(gp)
        stw   zero, %gprel(alt_exception_old_stack_limit)(gp)
#endif /* ALT_STACK_CHECK */
        ldw   sp,  76(sp)
#else /* ALT_EXCEPTION_STACK disabled */
        addi  sp, sp, 76
   200f4:	dec01304 	addi	sp,sp,76

        /*
         * Return to the interrupted instruction.
         */

        eret
   200f8:	ef80083a 	eret

000200fc <alt_irq_handler>:
 * instruction is present if the macro ALT_CI_INTERRUPT_VECTOR defined.
 */

void alt_irq_handler (void) __attribute__ ((section (".exceptions")));
void alt_irq_handler (void)
{
   200fc:	defff904 	addi	sp,sp,-28
   20100:	dfc00615 	stw	ra,24(sp)
   20104:	df000515 	stw	fp,20(sp)
   20108:	df000504 	addi	fp,sp,20
  
  /*
   * Notify the operating system that we are at interrupt level.
   */ 
  
  ALT_OS_INT_ENTER();
   2010c:	0001883a 	nop
#ifndef NIOS2_EIC_PRESENT
static ALT_INLINE alt_u32 ALT_ALWAYS_INLINE alt_irq_pending (void)
{
  alt_u32 active;

  NIOS2_READ_IPENDING (active);
   20110:	0005313a 	rdctl	r2,ipending
   20114:	e0bffe15 	stw	r2,-8(fp)

  return active;
   20118:	e0bffe17 	ldw	r2,-8(fp)
   * Consider the case where the high priority interupt is asserted during
   * the interrupt entry sequence for a lower priority interrupt to see why
   * this is the case.
   */

  active = alt_irq_pending ();
   2011c:	e0bffb15 	stw	r2,-20(fp)

  do
  {
    i = 0;
   20120:	e03ffd15 	stw	zero,-12(fp)
    mask = 1;
   20124:	00800044 	movi	r2,1
   20128:	e0bffc15 	stw	r2,-16(fp)
     * called to clear the interrupt condition.
     */

    do
    {
      if (active & mask)
   2012c:	e0fffb17 	ldw	r3,-20(fp)
   20130:	e0bffc17 	ldw	r2,-16(fp)
   20134:	1884703a 	and	r2,r3,r2
   20138:	10001426 	beq	r2,zero,2018c <alt_irq_handler+0x90>
      { 
#ifdef ALT_ENHANCED_INTERRUPT_API_PRESENT
        alt_irq[i].handler(alt_irq[i].context); 
   2013c:	00800134 	movhi	r2,4
   20140:	10a01f04 	addi	r2,r2,-32644
   20144:	e0fffd17 	ldw	r3,-12(fp)
   20148:	180690fa 	slli	r3,r3,3
   2014c:	10c5883a 	add	r2,r2,r3
   20150:	10c00017 	ldw	r3,0(r2)
   20154:	00800134 	movhi	r2,4
   20158:	10a01f04 	addi	r2,r2,-32644
   2015c:	e13ffd17 	ldw	r4,-12(fp)
   20160:	200890fa 	slli	r4,r4,3
   20164:	1105883a 	add	r2,r2,r4
   20168:	10800104 	addi	r2,r2,4
   2016c:	10800017 	ldw	r2,0(r2)
   20170:	1009883a 	mov	r4,r2
   20174:	183ee83a 	callr	r3
#else
        alt_irq[i].handler(alt_irq[i].context, i); 
#endif
        break;
   20178:	0001883a 	nop
#ifndef NIOS2_EIC_PRESENT
static ALT_INLINE alt_u32 ALT_ALWAYS_INLINE alt_irq_pending (void)
{
  alt_u32 active;

  NIOS2_READ_IPENDING (active);
   2017c:	0005313a 	rdctl	r2,ipending
   20180:	e0bfff15 	stw	r2,-4(fp)

  return active;
   20184:	e0bfff17 	ldw	r2,-4(fp)
   20188:	00000706 	br	201a8 <alt_irq_handler+0xac>
      }
      mask <<= 1;
   2018c:	e0bffc17 	ldw	r2,-16(fp)
   20190:	1085883a 	add	r2,r2,r2
   20194:	e0bffc15 	stw	r2,-16(fp)
      i++;
   20198:	e0bffd17 	ldw	r2,-12(fp)
   2019c:	10800044 	addi	r2,r2,1
   201a0:	e0bffd15 	stw	r2,-12(fp)

    } while (1);
   201a4:	003fe106 	br	2012c <__alt_data_end+0xfffe0d2c>

    active = alt_irq_pending ();
   201a8:	e0bffb15 	stw	r2,-20(fp)
    
  } while (active);
   201ac:	e0bffb17 	ldw	r2,-20(fp)
   201b0:	103fdb1e 	bne	r2,zero,20120 <__alt_data_end+0xfffe0d20>

  /*
   * Notify the operating system that interrupt processing is complete.
   */ 

  ALT_OS_INT_EXIT();
   201b4:	0001883a 	nop
}
   201b8:	0001883a 	nop
   201bc:	e037883a 	mov	sp,fp
   201c0:	dfc00117 	ldw	ra,4(sp)
   201c4:	df000017 	ldw	fp,0(sp)
   201c8:	dec00204 	addi	sp,sp,8
   201cc:	f800283a 	ret

000201d0 <alt_instruction_exception_entry>:
 * that handler if it has been registered. Absent a handler, it will
 * break break or hang as discussed below.
 */
int 
alt_instruction_exception_entry (alt_u32 exception_pc)
{
   201d0:	defffb04 	addi	sp,sp,-20
   201d4:	dfc00415 	stw	ra,16(sp)
   201d8:	df000315 	stw	fp,12(sp)
   201dc:	df000304 	addi	fp,sp,12
   201e0:	e13fff15 	stw	r4,-4(fp)
 * NIOS2_EXCEPTION_CAUSE_NOT_PRESENT. Your handling routine should
 * check the validity of the cause argument before proceeding.
 */
#ifdef NIOS2_HAS_EXTRA_EXCEPTION_INFO
  /* Get exception cause & "badaddr" */
  NIOS2_READ_EXCEPTION(cause);
   201e4:	000531fa 	rdctl	r2,exception
   201e8:	e0bffd15 	stw	r2,-12(fp)
  cause = ( (cause & NIOS2_EXCEPTION_REG_CAUSE_MASK) >>
   201ec:	e0bffd17 	ldw	r2,-12(fp)
   201f0:	10801f0c 	andi	r2,r2,124
   201f4:	1004d0ba 	srli	r2,r2,2
   201f8:	e0bffd15 	stw	r2,-12(fp)
              NIOS2_EXCEPTION_REG_CAUSE_OFST );

  NIOS2_READ_BADADDR(badaddr);
   201fc:	0005333a 	rdctl	r2,badaddr
   20200:	e0bffe15 	stw	r2,-8(fp)
#else
  cause = NIOS2_EXCEPTION_CAUSE_NOT_PRESENT;
  badaddr = 0;
#endif /* NIOS2_HAS_EXTRA_EXCEPTION_INFO */

  if(alt_instruction_exception_handler) {
   20204:	d0a6dd17 	ldw	r2,-25740(gp)
   20208:	10000726 	beq	r2,zero,20228 <alt_instruction_exception_entry+0x58>
     * Call handler. Its return value indicates whether the exception-causing
     * instruction should be re-issued. The code that called us,
     * alt_eceptions_entry.S, will look at this value and adjust the ea
     * register as necessary
     */
    return alt_instruction_exception_handler(cause, exception_pc, badaddr);
   2020c:	d0a6dd17 	ldw	r2,-25740(gp)
   20210:	e0fffd17 	ldw	r3,-12(fp)
   20214:	e1bffe17 	ldw	r6,-8(fp)
   20218:	e17fff17 	ldw	r5,-4(fp)
   2021c:	1809883a 	mov	r4,r3
   20220:	103ee83a 	callr	r2
   20224:	00000206 	br	20230 <alt_instruction_exception_entry+0x60>
   *    (a peripheral which negates its interrupt output before its
   *    interrupt handler has been executed will cause spurious interrupts)
   */
  else {
#ifdef NIOS2_HAS_DEBUG_STUB
    NIOS2_BREAK();
   20228:	003da03a 	break	0
      ;
#endif /* NIOS2_HAS_DEBUG_STUB */
  }

  /* We should not get here. Remove compiler warning. */
  return NIOS2_EXCEPTION_RETURN_REISSUE_INST;
   2022c:	0005883a 	mov	r2,zero
}
   20230:	e037883a 	mov	sp,fp
   20234:	dfc00117 	ldw	ra,4(sp)
   20238:	df000017 	ldw	fp,0(sp)
   2023c:	dec00204 	addi	sp,sp,8
   20240:	f800283a 	ret

Disassembly of section .text:

00020244 <_start>:

    /* Assume the data cache size is always a power of two. */
#if NIOS2_DCACHE_SIZE > 0x8000
    movhi r2, %hi(NIOS2_DCACHE_SIZE)
#else
    movui r2, NIOS2_DCACHE_SIZE
   20244:	00820014 	movui	r2,2048
#endif

0:
    initd 0(r2)
   20248:	10000033 	initd	0(r2)
#ifdef NIOS2_ECC_PRESENT
    addi r2, r2, -4
#else
    addi r2, r2, -NIOS2_DCACHE_LINE_SIZE
   2024c:	10bff804 	addi	r2,r2,-32
#endif
    bgt r2, zero, 0b
   20250:	00bffd16 	blt	zero,r2,20248 <__alt_data_end+0xfffe0e48>

    /*
     * Now that the caches are initialized, set up the stack pointer and global pointer.
     * The values provided by the linker are assumed to be correctly aligned.
     */
    movhi sp, %hi(__alt_stack_pointer)
   20254:	06c000f4 	movhi	sp,3
    ori sp, sp, %lo(__alt_stack_pointer)
   20258:	defd0014 	ori	sp,sp,62464
    movhi gp, %hi(_gp)
   2025c:	068000f4 	movhi	gp,3
    ori gp, gp, %lo(_gp)
   20260:	d6b92814 	ori	gp,gp,58528
 */
#ifndef ALT_SIM_OPTIMIZE
    /* Log that the BSS is about to be cleared. */
    ALT_LOG_PUTS(alt_log_msg_bss)

    movhi r2, %hi(__bss_start)
   20264:	008000f4 	movhi	r2,3
    ori r2, r2, %lo(__bss_start)
   20268:	109ff514 	ori	r2,r2,32724

    movhi r3, %hi(__bss_end)
   2026c:	00c000f4 	movhi	r3,3
    ori r3, r3, %lo(__bss_end)
   20270:	18e05f14 	ori	r3,r3,33148

    beq r2, r3, 1f
   20274:	10c00326 	beq	r2,r3,20284 <_start+0x40>

0:
    stw zero, (r2)
   20278:	10000015 	stw	zero,0(r2)
    addi r2, r2, 4
   2027c:	10800104 	addi	r2,r2,4
    bltu r2, r3, 0b
   20280:	10fffd36 	bltu	r2,r3,20278 <__alt_data_end+0xfffe0e78>
     * section aren't defined until alt_load() has been called).
     */
    mov   et, zero
#endif

    call alt_load
   20284:	0031a1c0 	call	31a1c <alt_load>

    /* Log that alt_main is about to be called. */
    ALT_LOG_PUTS(alt_log_msg_alt_main)

    /* Call the C entry point. It should never return. */
    call alt_main
   20288:	0031bb00 	call	31bb0 <alt_main>

0002028c <alt_after_alt_main>:

    /* Wait in infinite loop in case alt_main does return. */
alt_after_alt_main:
    br alt_after_alt_main
   2028c:	003fff06 	br	2028c <__alt_data_end+0xfffe0e8c>

00020290 <Write32_Data>:
#define SLEEP_TIME 250  //us
#define ACK_SLEEP_TIME 250 //us
#define TRUE 1
#define FALSE 0

bool Write32_Data(alt_32 base_address, alt_32 offset_address, alt_32 Data){
   20290:	defffb04 	addi	sp,sp,-20
   20294:	df000415 	stw	fp,16(sp)
   20298:	df000404 	addi	fp,sp,16
   2029c:	e13ffd15 	stw	r4,-12(fp)
   202a0:	e17ffe15 	stw	r5,-8(fp)
   202a4:	e1bfff15 	stw	r6,-4(fp)
	bool bPass;
    IOWR(base_address, offset_address,Data);
   202a8:	e0bffe17 	ldw	r2,-8(fp)
   202ac:	1085883a 	add	r2,r2,r2
   202b0:	1085883a 	add	r2,r2,r2
   202b4:	1007883a 	mov	r3,r2
   202b8:	e0bffd17 	ldw	r2,-12(fp)
   202bc:	1885883a 	add	r2,r3,r2
   202c0:	1007883a 	mov	r3,r2
   202c4:	e0bfff17 	ldw	r2,-4(fp)
   202c8:	18800035 	stwio	r2,0(r3)
    bPass=TRUE;
   202cc:	00800044 	movi	r2,1
   202d0:	e0bffc05 	stb	r2,-16(fp)
    return bPass;
   202d4:	e0bffc03 	ldbu	r2,-16(fp)
}
   202d8:	e037883a 	mov	sp,fp
   202dc:	df000017 	ldw	fp,0(sp)
   202e0:	dec00104 	addi	sp,sp,4
   202e4:	f800283a 	ret

000202e8 <Read32_Data>:



bool  Read32_Data(alt_32 base_address, alt_32 offset_address, alt_32 *pData32){
   202e8:	defffb04 	addi	sp,sp,-20
   202ec:	df000415 	stw	fp,16(sp)
   202f0:	df000404 	addi	fp,sp,16
   202f4:	e13ffd15 	stw	r4,-12(fp)
   202f8:	e17ffe15 	stw	r5,-8(fp)
   202fc:	e1bfff15 	stw	r6,-4(fp)
	bool bPass;
	*pData32 =IORD(base_address ,offset_address  );
   20300:	e0bffe17 	ldw	r2,-8(fp)
   20304:	1085883a 	add	r2,r2,r2
   20308:	1085883a 	add	r2,r2,r2
   2030c:	1007883a 	mov	r3,r2
   20310:	e0bffd17 	ldw	r2,-12(fp)
   20314:	1885883a 	add	r2,r3,r2
   20318:	10c00037 	ldwio	r3,0(r2)
   2031c:	e0bfff17 	ldw	r2,-4(fp)
   20320:	10c00015 	stw	r3,0(r2)
	bPass=TRUE;
   20324:	00800044 	movi	r2,1
   20328:	e0bffc05 	stb	r2,-16(fp)
    return bPass;
   2032c:	e0bffc03 	ldbu	r2,-16(fp)
}
   20330:	e037883a 	mov	sp,fp
   20334:	df000017 	ldw	fp,0(sp)
   20338:	dec00104 	addi	sp,sp,4
   2033c:	f800283a 	ret

00020340 <oc_i2c_init>:

bool oc_i2c_init(alt_32 i2c_base){
   20340:	defffa04 	addi	sp,sp,-24
   20344:	dfc00515 	stw	ra,20(sp)
   20348:	df000415 	stw	fp,16(sp)
   2034c:	df000404 	addi	fp,sp,16
   20350:	e13fff15 	stw	r4,-4(fp)
	bool bSuccess;
	const alt_32 ref_clk = 50*1000*1000; // 50MHz
   20354:	0080bef4 	movhi	r2,763
   20358:	10bc2004 	addi	r2,r2,-3968
   2035c:	e0bffc15 	stw	r2,-16(fp)
	const alt_32 i2c_clk = 400*1000; // 400KHz
   20360:	008001b4 	movhi	r2,6
   20364:	1086a004 	addi	r2,r2,6784
   20368:	e0bffd15 	stw	r2,-12(fp)

	bSuccess = oc_i2c_init_ex(i2c_base, ref_clk, i2c_clk);
   2036c:	e1bffd17 	ldw	r6,-12(fp)
   20370:	e17ffc17 	ldw	r5,-16(fp)
   20374:	e13fff17 	ldw	r4,-4(fp)
   20378:	00203980 	call	20398 <oc_i2c_init_ex>
   2037c:	e0bffe05 	stb	r2,-8(fp)

	return bSuccess;
   20380:	e0bffe03 	ldbu	r2,-8(fp)
}
   20384:	e037883a 	mov	sp,fp
   20388:	dfc00117 	ldw	ra,4(sp)
   2038c:	df000017 	ldw	fp,0(sp)
   20390:	dec00204 	addi	sp,sp,8
   20394:	f800283a 	ret

00020398 <oc_i2c_init_ex>:

bool  oc_i2c_init_ex(alt_32 i2c_base, alt_32 ref_clk, alt_32 i2c_clk)
{
   20398:	defff704 	addi	sp,sp,-36
   2039c:	dfc00815 	stw	ra,32(sp)
   203a0:	df000715 	stw	fp,28(sp)
   203a4:	df000704 	addi	fp,sp,28
   203a8:	e13ffd15 	stw	r4,-12(fp)
   203ac:	e17ffe15 	stw	r5,-8(fp)
   203b0:	e1bfff15 	stw	r6,-4(fp)
	bool bSuccess=TRUE;
   203b4:	00800044 	movi	r2,1
   203b8:	e0bff905 	stb	r2,-28(fp)
	alt_32 read_data;
	alt_32 prescale;
	alt_u8 prescale_high;
	alt_u8 prescale_low;
	const alt_u8 ControlValue = 0x80;
   203bc:	00bfe004 	movi	r2,-128
   203c0:	e0bff945 	stb	r2,-27(fp)

    // I2c sysclock =50M hz
	// i2c scl max 400k
	//scl =sysclock/(prescale*5)
	prescale = (ref_clk/(5*i2c_clk))-1;
   203c4:	e0bfff17 	ldw	r2,-4(fp)
   203c8:	10800164 	muli	r2,r2,5
   203cc:	100b883a 	mov	r5,r2
   203d0:	e13ffe17 	ldw	r4,-8(fp)
   203d4:	00236dc0 	call	236dc <__divsi3>
   203d8:	10bfffc4 	addi	r2,r2,-1
   203dc:	e0bffa15 	stw	r2,-24(fp)
	prescale_low = prescale & 0xFF;
   203e0:	e0bffa17 	ldw	r2,-24(fp)
   203e4:	e0bffb05 	stb	r2,-20(fp)
	prescale_high = (prescale >> 8) & 0xFF;
   203e8:	e0bffa17 	ldw	r2,-24(fp)
   203ec:	1005d23a 	srai	r2,r2,8
   203f0:	e0bffb45 	stb	r2,-19(fp)

   IOWR(i2c_base, 0, prescale_low);//write low byte of  prescale (reg 0)
   203f4:	e0bffd17 	ldw	r2,-12(fp)
   203f8:	e0fffb03 	ldbu	r3,-20(fp)
   203fc:	10c00035 	stwio	r3,0(r2)
   IOWR(i2c_base, 1, prescale_high);//write high byte of prescale (reg 1)
   20400:	e0bffd17 	ldw	r2,-12(fp)
   20404:	10800104 	addi	r2,r2,4
   20408:	1007883a 	mov	r3,r2
   2040c:	e0bffb43 	ldbu	r2,-19(fp)
   20410:	18800035 	stwio	r2,0(r3)

   //enable the I2C core, but disable the IRQ
   IOWR( i2c_base, 2, ControlValue);
   20414:	e0bffd17 	ldw	r2,-12(fp)
   20418:	10800204 	addi	r2,r2,8
   2041c:	1007883a 	mov	r3,r2
   20420:	e0bff943 	ldbu	r2,-27(fp)
   20424:	18800035 	stwio	r2,0(r3)


    // check prescale low byte
    if (bSuccess){
   20428:	e0bff903 	ldbu	r2,-28(fp)
   2042c:	10000826 	beq	r2,zero,20450 <oc_i2c_init_ex+0xb8>
    	read_data =IORD(i2c_base, 0);
   20430:	e0bffd17 	ldw	r2,-12(fp)
   20434:	10800037 	ldwio	r2,0(r2)
   20438:	e0bffc15 	stw	r2,-16(fp)
        if( (read_data & 0x00ff) != prescale_low ){
   2043c:	e0bffc17 	ldw	r2,-16(fp)
   20440:	10c03fcc 	andi	r3,r2,255
   20444:	e0bffb03 	ldbu	r2,-20(fp)
   20448:	18800126 	beq	r3,r2,20450 <oc_i2c_init_ex+0xb8>
            bSuccess = FALSE;
   2044c:	e03ff905 	stb	zero,-28(fp)
        }
    }

    // check prescale high byte
    if (bSuccess){
   20450:	e0bff903 	ldbu	r2,-28(fp)
   20454:	10000926 	beq	r2,zero,2047c <oc_i2c_init_ex+0xe4>
    	read_data =IORD(i2c_base, 1);
   20458:	e0bffd17 	ldw	r2,-12(fp)
   2045c:	10800104 	addi	r2,r2,4
   20460:	10800037 	ldwio	r2,0(r2)
   20464:	e0bffc15 	stw	r2,-16(fp)
        if( (read_data & 0x00ff) != prescale_high ){
   20468:	e0bffc17 	ldw	r2,-16(fp)
   2046c:	10c03fcc 	andi	r3,r2,255
   20470:	e0bffb43 	ldbu	r2,-19(fp)
   20474:	18800126 	beq	r3,r2,2047c <oc_i2c_init_ex+0xe4>
            bSuccess = FALSE;
   20478:	e03ff905 	stb	zero,-28(fp)
        }
    }

    // check control
    if (bSuccess){
   2047c:	e0bff903 	ldbu	r2,-28(fp)
   20480:	10000926 	beq	r2,zero,204a8 <oc_i2c_init_ex+0x110>
    	read_data =IORD(i2c_base, 2);
   20484:	e0bffd17 	ldw	r2,-12(fp)
   20488:	10800204 	addi	r2,r2,8
   2048c:	10800037 	ldwio	r2,0(r2)
   20490:	e0bffc15 	stw	r2,-16(fp)
        if( (read_data & 0x00ff) != ControlValue ){
   20494:	e0bffc17 	ldw	r2,-16(fp)
   20498:	10c03fcc 	andi	r3,r2,255
   2049c:	e0bff943 	ldbu	r2,-27(fp)
   204a0:	18800126 	beq	r3,r2,204a8 <oc_i2c_init_ex+0x110>
            bSuccess = FALSE;
   204a4:	e03ff905 	stb	zero,-28(fp)
        }
    }

   if (bSuccess)
   204a8:	e0bff903 	ldbu	r2,-28(fp)
   204ac:	10000426 	beq	r2,zero,204c0 <oc_i2c_init_ex+0x128>
       printf("\nI2C core is enabled! \r\n");
   204b0:	010000f4 	movhi	r4,3
   204b4:	210ffa04 	addi	r4,r4,16360
   204b8:	002727c0 	call	2727c <puts>
   204bc:	00000306 	br	204cc <oc_i2c_init_ex+0x134>
   else
       printf("\nI2C core is not enabled successfully! \r\n");
   204c0:	010000f4 	movhi	r4,3
   204c4:	21100004 	addi	r4,r4,16384
   204c8:	002727c0 	call	2727c <puts>

   return bSuccess;
   204cc:	e0bff903 	ldbu	r2,-28(fp)

}
   204d0:	e037883a 	mov	sp,fp
   204d4:	dfc00117 	ldw	ra,4(sp)
   204d8:	df000017 	ldw	fp,0(sp)
   204dc:	dec00204 	addi	sp,sp,8
   204e0:	f800283a 	ret

000204e4 <oc_i2c_uninit>:

bool oc_i2c_uninit(alt_32 i2c_base)
{
   204e4:	defffb04 	addi	sp,sp,-20
   204e8:	dfc00415 	stw	ra,16(sp)
   204ec:	df000315 	stw	fp,12(sp)
   204f0:	df000304 	addi	fp,sp,12
   204f4:	e13fff15 	stw	r4,-4(fp)
	bool bSuccess=TRUE;
   204f8:	00800044 	movi	r2,1
   204fc:	e0bffd05 	stb	r2,-12(fp)
	alt_32 read_data;
	const alt_u8 ControlValue = 0x00;
   20500:	e03ffd45 	stb	zero,-11(fp)

    IOWR( i2c_base, 2, ControlValue);
   20504:	e0bfff17 	ldw	r2,-4(fp)
   20508:	10800204 	addi	r2,r2,8
   2050c:	1007883a 	mov	r3,r2
   20510:	e0bffd43 	ldbu	r2,-11(fp)
   20514:	18800035 	stwio	r2,0(r3)
   	read_data =IORD(i2c_base, 2);
   20518:	e0bfff17 	ldw	r2,-4(fp)
   2051c:	10800204 	addi	r2,r2,8
   20520:	10800037 	ldwio	r2,0(r2)
   20524:	e0bffe15 	stw	r2,-8(fp)
	if( (read_data & 0x00ff) != ControlValue ){
   20528:	e0bffe17 	ldw	r2,-8(fp)
   2052c:	10c03fcc 	andi	r3,r2,255
   20530:	e0bffd43 	ldbu	r2,-11(fp)
   20534:	18800126 	beq	r3,r2,2053c <oc_i2c_uninit+0x58>
            bSuccess = FALSE;
   20538:	e03ffd05 	stb	zero,-12(fp)
    }

   if (bSuccess)
   2053c:	e0bffd03 	ldbu	r2,-12(fp)
   20540:	10000426 	beq	r2,zero,20554 <oc_i2c_uninit+0x70>
       printf("\nI2C core  is disabled! \r\n");
   20544:	010000f4 	movhi	r4,3
   20548:	21100b04 	addi	r4,r4,16428
   2054c:	002727c0 	call	2727c <puts>
   20550:	00000306 	br	20560 <oc_i2c_uninit+0x7c>
   else
       printf("\nI2C core is failed to disable! \r\n");
   20554:	010000f4 	movhi	r4,3
   20558:	21101204 	addi	r4,r4,16456
   2055c:	002727c0 	call	2727c <puts>

   return bSuccess;
   20560:	e0bffd03 	ldbu	r2,-12(fp)

}
   20564:	e037883a 	mov	sp,fp
   20568:	dfc00117 	ldw	ra,4(sp)
   2056c:	df000017 	ldw	fp,0(sp)
   20570:	dec00204 	addi	sp,sp,8
   20574:	f800283a 	ret

00020578 <ACK_single_check>:




bool  ACK_single_check(alt_32 i2c_base)
{
   20578:	defffb04 	addi	sp,sp,-20
   2057c:	dfc00415 	stw	ra,16(sp)
   20580:	df000315 	stw	fp,12(sp)
   20584:	df000304 	addi	fp,sp,12
   20588:	e13fff15 	stw	r4,-4(fp)
	bool bSuccess=TRUE;
   2058c:	00800044 	movi	r2,1
   20590:	e0bffd05 	stb	r2,-12(fp)
	alt_32 read_data;

    usleep(ACK_SLEEP_TIME);
   20594:	01003e84 	movi	r4,250
   20598:	00320640 	call	32064 <usleep>
    read_data =IORD(i2c_base, 4);
   2059c:	e0bfff17 	ldw	r2,-4(fp)
   205a0:	10800404 	addi	r2,r2,16
   205a4:	10800037 	ldwio	r2,0(r2)
   205a8:	e0bffe15 	stw	r2,-8(fp)
    if(read_data & 0x02)
   205ac:	e0bffe17 	ldw	r2,-8(fp)
   205b0:	1080008c 	andi	r2,r2,2
   205b4:	10000126 	beq	r2,zero,205bc <ACK_single_check+0x44>
            bSuccess = FALSE;
   205b8:	e03ffd05 	stb	zero,-12(fp)
     if (bSuccess){
   205bc:	e0bffd03 	ldbu	r2,-12(fp)
   205c0:	10000a26 	beq	r2,zero,205ec <ACK_single_check+0x74>
            usleep(ACK_SLEEP_TIME);
   205c4:	01003e84 	movi	r4,250
   205c8:	00320640 	call	32064 <usleep>
            read_data =IORD(i2c_base, 4);
   205cc:	e0bfff17 	ldw	r2,-4(fp)
   205d0:	10800404 	addi	r2,r2,16
   205d4:	10800037 	ldwio	r2,0(r2)
   205d8:	e0bffe15 	stw	r2,-8(fp)
                if(read_data & 0x80)
   205dc:	e0bffe17 	ldw	r2,-8(fp)
   205e0:	1080200c 	andi	r2,r2,128
   205e4:	10000126 	beq	r2,zero,205ec <ACK_single_check+0x74>
                    bSuccess = FALSE;
   205e8:	e03ffd05 	stb	zero,-12(fp)
     }
    return bSuccess;
   205ec:	e0bffd03 	ldbu	r2,-12(fp)
}
   205f0:	e037883a 	mov	sp,fp
   205f4:	dfc00117 	ldw	ra,4(sp)
   205f8:	df000017 	ldw	fp,0(sp)
   205fc:	dec00204 	addi	sp,sp,8
   20600:	f800283a 	ret

00020604 <ACK_check>:


bool  ACK_check(alt_32 i2c_base){
   20604:	defffb04 	addi	sp,sp,-20
   20608:	dfc00415 	stw	ra,16(sp)
   2060c:	df000315 	stw	fp,12(sp)
   20610:	df000304 	addi	fp,sp,12
   20614:	e13fff15 	stw	r4,-4(fp)
    bool bSuccess = FALSE;
   20618:	e03ffd05 	stb	zero,-12(fp)
    int i=0;
   2061c:	e03ffe15 	stw	zero,-8(fp)

    while(!bSuccess && i++ < 10){
   20620:	00000306 	br	20630 <ACK_check+0x2c>
        bSuccess = ACK_single_check(i2c_base);
   20624:	e13fff17 	ldw	r4,-4(fp)
   20628:	00205780 	call	20578 <ACK_single_check>
   2062c:	e0bffd05 	stb	r2,-12(fp)

bool  ACK_check(alt_32 i2c_base){
    bool bSuccess = FALSE;
    int i=0;

    while(!bSuccess && i++ < 10){
   20630:	e0bffd03 	ldbu	r2,-12(fp)
   20634:	1080005c 	xori	r2,r2,1
   20638:	10803fcc 	andi	r2,r2,255
   2063c:	10000526 	beq	r2,zero,20654 <ACK_check+0x50>
   20640:	e0bffe17 	ldw	r2,-8(fp)
   20644:	10c00044 	addi	r3,r2,1
   20648:	e0fffe15 	stw	r3,-8(fp)
   2064c:	10800290 	cmplti	r2,r2,10
   20650:	103ff41e 	bne	r2,zero,20624 <__alt_data_end+0xfffe1224>
      //  if (!bSuccess)
    //	printf("no ack2 !!!!!!!!!!!!!!!!!!!!, i=%d\r\n", i);

    }

    return bSuccess;
   20654:	e0bffd03 	ldbu	r2,-12(fp)
}
   20658:	e037883a 	mov	sp,fp
   2065c:	dfc00117 	ldw	ra,4(sp)
   20660:	df000017 	ldw	fp,0(sp)
   20664:	dec00204 	addi	sp,sp,8
   20668:	f800283a 	ret

0002066c <OC_I2C_Write>:

bool  OC_I2C_Write(alt_32 i2c_base,alt_u8 device_address,alt_u8 sub_address, alt_u8 *pData, int nWriteLength)
{
   2066c:	defff904 	addi	sp,sp,-28
   20670:	dfc00615 	stw	ra,24(sp)
   20674:	df000515 	stw	fp,20(sp)
   20678:	df000504 	addi	fp,sp,20
   2067c:	e13ffc15 	stw	r4,-16(fp)
   20680:	2807883a 	mov	r3,r5
   20684:	3005883a 	mov	r2,r6
   20688:	e1ffff15 	stw	r7,-4(fp)
   2068c:	e0fffd05 	stb	r3,-12(fp)
   20690:	e0bffe05 	stb	r2,-8(fp)
    //DWORD reg_data = 0x0;
    int i;

   //set the tx reg audio chip dev address with write bit
   if (!Write32_Data( i2c_base, 3,device_address)){
   20694:	e0bffd03 	ldbu	r2,-12(fp)
   20698:	100d883a 	mov	r6,r2
   2069c:	014000c4 	movi	r5,3
   206a0:	e13ffc17 	ldw	r4,-16(fp)
   206a4:	00202900 	call	20290 <Write32_Data>
   206a8:	1080005c 	xori	r2,r2,1
   206ac:	10803fcc 	andi	r2,r2,255
   206b0:	10000526 	beq	r2,zero,206c8 <OC_I2C_Write+0x5c>
       printf("OC_I2C_Write error[0]\r\n");
   206b4:	010000f4 	movhi	r4,3
   206b8:	21101b04 	addi	r4,r4,16492
   206bc:	002727c0 	call	2727c <puts>
       return FALSE;
   206c0:	0005883a 	mov	r2,zero
   206c4:	00007706 	br	208a4 <OC_I2C_Write+0x238>
   }
   //set STA and WR bits(bit7 and bit4)
   if (!Write32_Data( i2c_base, 4,0x90)){
   206c8:	01802404 	movi	r6,144
   206cc:	01400104 	movi	r5,4
   206d0:	e13ffc17 	ldw	r4,-16(fp)
   206d4:	00202900 	call	20290 <Write32_Data>
   206d8:	1080005c 	xori	r2,r2,1
   206dc:	10803fcc 	andi	r2,r2,255
   206e0:	10000526 	beq	r2,zero,206f8 <OC_I2C_Write+0x8c>
       printf("OC_I2C_Write error[1]\r\n");
   206e4:	010000f4 	movhi	r4,3
   206e8:	21102104 	addi	r4,r4,16516
   206ec:	002727c0 	call	2727c <puts>
       return FALSE;
   206f0:	0005883a 	mov	r2,zero
   206f4:	00006b06 	br	208a4 <OC_I2C_Write+0x238>
   }

   //wait TIP bit go to 0 to end Tx
    if(!ACK_check( i2c_base)){
   206f8:	e13ffc17 	ldw	r4,-16(fp)
   206fc:	00206040 	call	20604 <ACK_check>
   20700:	1080005c 	xori	r2,r2,1
   20704:	10803fcc 	andi	r2,r2,255
   20708:	10000526 	beq	r2,zero,20720 <OC_I2C_Write+0xb4>
        printf("OC_I2C_Write error[2]\r\n");
   2070c:	010000f4 	movhi	r4,3
   20710:	21102704 	addi	r4,r4,16540
   20714:	002727c0 	call	2727c <puts>
        return FALSE;
   20718:	0005883a 	mov	r2,zero
   2071c:	00006106 	br	208a4 <OC_I2C_Write+0x238>
    }
  // printf("\n receive ACK-device address! \n");

   //set the txr reg data with reg address + 1 data MSB
   if (!Write32_Data( i2c_base, 3,sub_address)){
   20720:	e0bffe03 	ldbu	r2,-8(fp)
   20724:	100d883a 	mov	r6,r2
   20728:	014000c4 	movi	r5,3
   2072c:	e13ffc17 	ldw	r4,-16(fp)
   20730:	00202900 	call	20290 <Write32_Data>
   20734:	1080005c 	xori	r2,r2,1
   20738:	10803fcc 	andi	r2,r2,255
   2073c:	10000526 	beq	r2,zero,20754 <OC_I2C_Write+0xe8>
       printf("OC_I2C_Write error[3]\r\n");
   20740:	010000f4 	movhi	r4,3
   20744:	21102d04 	addi	r4,r4,16564
   20748:	002727c0 	call	2727c <puts>
       return FALSE;
   2074c:	0005883a 	mov	r2,zero
   20750:	00005406 	br	208a4 <OC_I2C_Write+0x238>
   }

   //set WR bits(bit4)
    if (!Write32_Data( i2c_base, 4,0x10)){
   20754:	01800404 	movi	r6,16
   20758:	01400104 	movi	r5,4
   2075c:	e13ffc17 	ldw	r4,-16(fp)
   20760:	00202900 	call	20290 <Write32_Data>
   20764:	1080005c 	xori	r2,r2,1
   20768:	10803fcc 	andi	r2,r2,255
   2076c:	10000526 	beq	r2,zero,20784 <OC_I2C_Write+0x118>
        printf("OC_I2C_Write error[4]\r\n");
   20770:	010000f4 	movhi	r4,3
   20774:	21103304 	addi	r4,r4,16588
   20778:	002727c0 	call	2727c <puts>
        return FALSE;
   2077c:	0005883a 	mov	r2,zero
   20780:	00004806 	br	208a4 <OC_I2C_Write+0x238>
    }

   //wait TIP bit go to 0 to end Tx
    if(!ACK_check( i2c_base)){
   20784:	e13ffc17 	ldw	r4,-16(fp)
   20788:	00206040 	call	20604 <ACK_check>
   2078c:	1080005c 	xori	r2,r2,1
   20790:	10803fcc 	andi	r2,r2,255
   20794:	10000526 	beq	r2,zero,207ac <OC_I2C_Write+0x140>
        printf("OC_I2C_Write error[5]\r\n");
   20798:	010000f4 	movhi	r4,3
   2079c:	21103904 	addi	r4,r4,16612
   207a0:	002727c0 	call	2727c <puts>
        return FALSE;
   207a4:	0005883a 	mov	r2,zero
   207a8:	00003e06 	br	208a4 <OC_I2C_Write+0x238>
    }
 //  printf("\n receive ACK-reg address! \n");

#if 1
//        for( i=nWriteLength-1;i>=0;i--){
        for( i=0;i<nWriteLength;i++){
   207ac:	e03ffb15 	stw	zero,-20(fp)
   207b0:	00002a06 	br	2085c <OC_I2C_Write+0x1f0>
        //set the txr reg data with the data
          if (!Write32_Data( i2c_base, 3,*(pData+i))){
   207b4:	e0bffb17 	ldw	r2,-20(fp)
   207b8:	e0ffff17 	ldw	r3,-4(fp)
   207bc:	1885883a 	add	r2,r3,r2
   207c0:	10800003 	ldbu	r2,0(r2)
   207c4:	10803fcc 	andi	r2,r2,255
   207c8:	100d883a 	mov	r6,r2
   207cc:	014000c4 	movi	r5,3
   207d0:	e13ffc17 	ldw	r4,-16(fp)
   207d4:	00202900 	call	20290 <Write32_Data>
   207d8:	1080005c 	xori	r2,r2,1
   207dc:	10803fcc 	andi	r2,r2,255
   207e0:	10000526 	beq	r2,zero,207f8 <OC_I2C_Write+0x18c>
              printf("OC_I2C_Write error[6]\r\n");
   207e4:	010000f4 	movhi	r4,3
   207e8:	21103f04 	addi	r4,r4,16636
   207ec:	002727c0 	call	2727c <puts>
              return FALSE;
   207f0:	0005883a 	mov	r2,zero
   207f4:	00002b06 	br	208a4 <OC_I2C_Write+0x238>
          }

        //set STO and WR bits(bit7 and bit4)
         if (!Write32_Data( i2c_base, 4,0x10)){
   207f8:	01800404 	movi	r6,16
   207fc:	01400104 	movi	r5,4
   20800:	e13ffc17 	ldw	r4,-16(fp)
   20804:	00202900 	call	20290 <Write32_Data>
   20808:	1080005c 	xori	r2,r2,1
   2080c:	10803fcc 	andi	r2,r2,255
   20810:	10000526 	beq	r2,zero,20828 <OC_I2C_Write+0x1bc>
             printf("OC_I2C_Write error[7]\r\n");
   20814:	010000f4 	movhi	r4,3
   20818:	21104504 	addi	r4,r4,16660
   2081c:	002727c0 	call	2727c <puts>
              return FALSE;
   20820:	0005883a 	mov	r2,zero
   20824:	00001f06 	br	208a4 <OC_I2C_Write+0x238>
         }

         //wait TIP bit go to 0 to end Tx
          if(!ACK_check( i2c_base)){
   20828:	e13ffc17 	ldw	r4,-16(fp)
   2082c:	00206040 	call	20604 <ACK_check>
   20830:	1080005c 	xori	r2,r2,1
   20834:	10803fcc 	andi	r2,r2,255
   20838:	10000526 	beq	r2,zero,20850 <OC_I2C_Write+0x1e4>
              printf("OC_I2C_Write error[8]\r\n");
   2083c:	010000f4 	movhi	r4,3
   20840:	21104b04 	addi	r4,r4,16684
   20844:	002727c0 	call	2727c <puts>
              return FALSE;
   20848:	0005883a 	mov	r2,zero
   2084c:	00001506 	br	208a4 <OC_I2C_Write+0x238>
    }
 //  printf("\n receive ACK-reg address! \n");

#if 1
//        for( i=nWriteLength-1;i>=0;i--){
        for( i=0;i<nWriteLength;i++){
   20850:	e0bffb17 	ldw	r2,-20(fp)
   20854:	10800044 	addi	r2,r2,1
   20858:	e0bffb15 	stw	r2,-20(fp)
   2085c:	e0fffb17 	ldw	r3,-20(fp)
   20860:	e0800217 	ldw	r2,8(fp)
   20864:	18bfd316 	blt	r3,r2,207b4 <__alt_data_end+0xfffe13b4>
   //wait TIP bit go to 0 to end Tx
    if(!ACK_check( i2c_base))
        return false;
#endif

     if (!Write32_Data( i2c_base, 4,0x40)){
   20868:	01801004 	movi	r6,64
   2086c:	01400104 	movi	r5,4
   20870:	e13ffc17 	ldw	r4,-16(fp)
   20874:	00202900 	call	20290 <Write32_Data>
   20878:	1080005c 	xori	r2,r2,1
   2087c:	10803fcc 	andi	r2,r2,255
   20880:	10000526 	beq	r2,zero,20898 <OC_I2C_Write+0x22c>
         printf("OC_I2C_Write error[9]\r\n");
   20884:	010000f4 	movhi	r4,3
   20888:	21105104 	addi	r4,r4,16708
   2088c:	002727c0 	call	2727c <puts>
         return FALSE;
   20890:	0005883a 	mov	r2,zero
   20894:	00000306 	br	208a4 <OC_I2C_Write+0x238>
     }
         //Sleep(10);
     //OS_msleep(1);
     usleep(SLEEP_TIME);
   20898:	01003e84 	movi	r4,250
   2089c:	00320640 	call	32064 <usleep>

  // printf("\n receive ACK-data! \n");

     return TRUE;
   208a0:	00800044 	movi	r2,1

}
   208a4:	e037883a 	mov	sp,fp
   208a8:	dfc00117 	ldw	ra,4(sp)
   208ac:	df000017 	ldw	fp,0(sp)
   208b0:	dec00204 	addi	sp,sp,8
   208b4:	f800283a 	ret

000208b8 <ACK_judge_for_read>:


bool ACK_judge_for_read(alt_32 i2c_base)
{
   208b8:	defffb04 	addi	sp,sp,-20
   208bc:	dfc00415 	stw	ra,16(sp)
   208c0:	df000315 	stw	fp,12(sp)
   208c4:	df000304 	addi	fp,sp,12
   208c8:	e13fff15 	stw	r4,-4(fp)
	bool bSuccess;
    alt_32 this_data;

   // OS_msleep( SLEEP_TIME );
     usleep(ACK_SLEEP_TIME);
   208cc:	01003e84 	movi	r4,250
   208d0:	00320640 	call	32064 <usleep>
    //   while(this_data & 0x02)
//   {
//      this_data =  Read32_Data ( hPCIe, i2c_base, 4);
//   }
    bSuccess =  Read32_Data ( i2c_base, 4, &this_data);
   208d4:	e0bffe04 	addi	r2,fp,-8
   208d8:	100d883a 	mov	r6,r2
   208dc:	01400104 	movi	r5,4
   208e0:	e13fff17 	ldw	r4,-4(fp)
   208e4:	00202e80 	call	202e8 <Read32_Data>
   208e8:	e0bffd05 	stb	r2,-12(fp)
    if (bSuccess){
   208ec:	e0bffd03 	ldbu	r2,-12(fp)
   208f0:	10000426 	beq	r2,zero,20904 <ACK_judge_for_read+0x4c>
        if(this_data & 0x02)
   208f4:	e0bffe17 	ldw	r2,-8(fp)
   208f8:	1080008c 	andi	r2,r2,2
   208fc:	10000126 	beq	r2,zero,20904 <ACK_judge_for_read+0x4c>
            bSuccess = FALSE;
   20900:	e03ffd05 	stb	zero,-12(fp)
    }
   //wait the rx ACK signal 0-valid

    return bSuccess;
   20904:	e0bffd03 	ldbu	r2,-12(fp)

}
   20908:	e037883a 	mov	sp,fp
   2090c:	dfc00117 	ldw	ra,4(sp)
   20910:	df000017 	ldw	fp,0(sp)
   20914:	dec00204 	addi	sp,sp,8
   20918:	f800283a 	ret

0002091c <OC_I2C_Read>:





bool  OC_I2C_Read(alt_32 i2c_base,alt_u8 device_address,alt_u8 sub_address, alt_u8 *pData8, int nReadLength){
   2091c:	defff804 	addi	sp,sp,-32
   20920:	dfc00715 	stw	ra,28(sp)
   20924:	df000615 	stw	fp,24(sp)
   20928:	df000604 	addi	fp,sp,24
   2092c:	e13ffc15 	stw	r4,-16(fp)
   20930:	2807883a 	mov	r3,r5
   20934:	3005883a 	mov	r2,r6
   20938:	e1ffff15 	stw	r7,-4(fp)
   2093c:	e0fffd05 	stb	r3,-12(fp)
   20940:	e0bffe05 	stb	r2,-8(fp)
    //BYTE data = 0x0;
    alt_32 Data32;
    int i;

   //set the tx reg audio chip dev address with write bit
   IOWR( i2c_base, 3,device_address);
   20944:	e0bffc17 	ldw	r2,-16(fp)
   20948:	10800304 	addi	r2,r2,12
   2094c:	1007883a 	mov	r3,r2
   20950:	e0bffd03 	ldbu	r2,-12(fp)
   20954:	18800035 	stwio	r2,0(r3)
   //set STA and WR bits(bit7 and bit4)
   IOWR( i2c_base, 4,0x90);
   20958:	e0bffc17 	ldw	r2,-16(fp)
   2095c:	10800404 	addi	r2,r2,16
   20960:	1007883a 	mov	r3,r2
   20964:	00802404 	movi	r2,144
   20968:	18800035 	stwio	r2,0(r3)
   //wait TIP bit go to 0 to end Tx
   if (!ACK_check( i2c_base)){
   2096c:	e13ffc17 	ldw	r4,-16(fp)
   20970:	00206040 	call	20604 <ACK_check>
   20974:	1080005c 	xori	r2,r2,1
   20978:	10803fcc 	andi	r2,r2,255
   2097c:	10000526 	beq	r2,zero,20994 <OC_I2C_Read+0x78>
       printf("OC_I2C_Read error[2]\r\n");
   20980:	010000f4 	movhi	r4,3
   20984:	21105704 	addi	r4,r4,16732
   20988:	002727c0 	call	2727c <puts>
       return FALSE;
   2098c:	0005883a 	mov	r2,zero
   20990:	00005806 	br	20af4 <OC_I2C_Read+0x1d8>
   }
   IOWR(i2c_base, 3,sub_address);
   20994:	e0bffc17 	ldw	r2,-16(fp)
   20998:	10800304 	addi	r2,r2,12
   2099c:	1007883a 	mov	r3,r2
   209a0:	e0bffe03 	ldbu	r2,-8(fp)
   209a4:	18800035 	stwio	r2,0(r3)

   //set WR bits(bit4)
   IOWR( i2c_base, 4,0x10);
   209a8:	e0bffc17 	ldw	r2,-16(fp)
   209ac:	10800404 	addi	r2,r2,16
   209b0:	1007883a 	mov	r3,r2
   209b4:	00800404 	movi	r2,16
   209b8:	18800035 	stwio	r2,0(r3)
   //wait TIP bit go to 0 to end Tx
    if (!ACK_check( i2c_base)){
   209bc:	e13ffc17 	ldw	r4,-16(fp)
   209c0:	00206040 	call	20604 <ACK_check>
   209c4:	1080005c 	xori	r2,r2,1
   209c8:	10803fcc 	andi	r2,r2,255
   209cc:	10000526 	beq	r2,zero,209e4 <OC_I2C_Read+0xc8>
        printf("OC_I2C_Read error[5]\r\n");
   209d0:	010000f4 	movhi	r4,3
   209d4:	21105d04 	addi	r4,r4,16756
   209d8:	002727c0 	call	2727c <puts>
        return FALSE;
   209dc:	0005883a 	mov	r2,zero
   209e0:	00004406 	br	20af4 <OC_I2C_Read+0x1d8>
  // printf("\n read receive ACK-reg address! \n");

   //read
    //set the tx reg audio chip dev address with read bit 1

    IOWR(i2c_base, 3,device_address|0x01);
   209e4:	e0bffc17 	ldw	r2,-16(fp)
   209e8:	10800304 	addi	r2,r2,12
   209ec:	1007883a 	mov	r3,r2
   209f0:	e0bffd03 	ldbu	r2,-12(fp)
   209f4:	10800054 	ori	r2,r2,1
   209f8:	10803fcc 	andi	r2,r2,255
   209fc:	18800035 	stwio	r2,0(r3)

   //set STA and WR bits(bit7 and bit4)
    IOWR( i2c_base, 4,0x90);
   20a00:	e0bffc17 	ldw	r2,-16(fp)
   20a04:	10800404 	addi	r2,r2,16
   20a08:	1007883a 	mov	r3,r2
   20a0c:	00802404 	movi	r2,144
   20a10:	18800035 	stwio	r2,0(r3)

   //wait TIP bit go to 0 to end Tx
    if (!ACK_check( i2c_base)){
   20a14:	e13ffc17 	ldw	r4,-16(fp)
   20a18:	00206040 	call	20604 <ACK_check>
   20a1c:	1080005c 	xori	r2,r2,1
   20a20:	10803fcc 	andi	r2,r2,255
   20a24:	10000526 	beq	r2,zero,20a3c <OC_I2C_Read+0x120>
        printf("OC_I2C_Read error[8]\r\n");
   20a28:	010000f4 	movhi	r4,3
   20a2c:	21106304 	addi	r4,r4,16780
   20a30:	002727c0 	call	2727c <puts>
        return FALSE;
   20a34:	0005883a 	mov	r2,zero
   20a38:	00002e06 	br	20af4 <OC_I2C_Read+0x1d8>
    }

    for(i=0;i<nReadLength;i++){
   20a3c:	e03ffa15 	stw	zero,-24(fp)
   20a40:	00002106 	br	20ac8 <OC_I2C_Read+0x1ac>
  // printf("\n read receive ACK-device address(read)! \n");
   //set the RD and ACK bit(bit5 and bit3)
    	IOWR( i2c_base, 4,((i+1) == nReadLength)?0x28:0x20);
   20a44:	e0bffc17 	ldw	r2,-16(fp)
   20a48:	10800404 	addi	r2,r2,16
   20a4c:	1009883a 	mov	r4,r2
   20a50:	e0bffa17 	ldw	r2,-24(fp)
   20a54:	10c00044 	addi	r3,r2,1
   20a58:	e0800217 	ldw	r2,8(fp)
   20a5c:	1880021e 	bne	r3,r2,20a68 <OC_I2C_Read+0x14c>
   20a60:	00800a04 	movi	r2,40
   20a64:	00000106 	br	20a6c <OC_I2C_Read+0x150>
   20a68:	00800804 	movi	r2,32
   20a6c:	20800035 	stwio	r2,0(r4)

        if (!ACK_judge_for_read( i2c_base)){
   20a70:	e13ffc17 	ldw	r4,-16(fp)
   20a74:	00208b80 	call	208b8 <ACK_judge_for_read>
   20a78:	1080005c 	xori	r2,r2,1
   20a7c:	10803fcc 	andi	r2,r2,255
   20a80:	10000526 	beq	r2,zero,20a98 <OC_I2C_Read+0x17c>
            printf("OC_I2C_Read error[10]\r\n");
   20a84:	010000f4 	movhi	r4,3
   20a88:	21106904 	addi	r4,r4,16804
   20a8c:	002727c0 	call	2727c <puts>
            return FALSE;
   20a90:	0005883a 	mov	r2,zero
   20a94:	00001706 	br	20af4 <OC_I2C_Read+0x1d8>
        }
   // printf("\n read receive ACK-device address(read)! \n");

        Data32=IORD( i2c_base, 3);
   20a98:	e0bffc17 	ldw	r2,-16(fp)
   20a9c:	10800304 	addi	r2,r2,12
   20aa0:	10800037 	ldwio	r2,0(r2)
   20aa4:	e0bffb15 	stw	r2,-20(fp)
//        printf("Data32_%d: %d\n", i, Data32);
        *(pData8+i) =  Data32 & 0xff;
   20aa8:	e0bffa17 	ldw	r2,-24(fp)
   20aac:	e0ffff17 	ldw	r3,-4(fp)
   20ab0:	1885883a 	add	r2,r3,r2
   20ab4:	e0fffb17 	ldw	r3,-20(fp)
   20ab8:	10c00005 	stb	r3,0(r2)
    if (!ACK_check( i2c_base)){
        printf("OC_I2C_Read error[8]\r\n");
        return FALSE;
    }

    for(i=0;i<nReadLength;i++){
   20abc:	e0bffa17 	ldw	r2,-24(fp)
   20ac0:	10800044 	addi	r2,r2,1
   20ac4:	e0bffa15 	stw	r2,-24(fp)
   20ac8:	e0fffa17 	ldw	r3,-24(fp)
   20acc:	e0800217 	ldw	r2,8(fp)
   20ad0:	18bfdc16 	blt	r3,r2,20a44 <__alt_data_end+0xfffe1644>
        Data32=IORD( i2c_base, 3);
//        printf("Data32_%d: %d\n", i, Data32);
        *(pData8+i) =  Data32 & 0xff;
    }

    IOWR( i2c_base, 4,0x40);
   20ad4:	e0bffc17 	ldw	r2,-16(fp)
   20ad8:	10800404 	addi	r2,r2,16
   20adc:	1007883a 	mov	r3,r2
   20ae0:	00801004 	movi	r2,64
   20ae4:	18800035 	stwio	r2,0(r3)

  // Sleep(10);
   //OS_msleep(1);
    usleep(SLEEP_TIME);
   20ae8:	01003e84 	movi	r4,250
   20aec:	00320640 	call	32064 <usleep>
 //  printf(" Read  [%02X] = %02Xh\r\n", sub_address, data);


   return TRUE;
   20af0:	00800044 	movi	r2,1

}
   20af4:	e037883a 	mov	sp,fp
   20af8:	dfc00117 	ldw	ra,4(sp)
   20afc:	df000017 	ldw	fp,0(sp)
   20b00:	dec00204 	addi	sp,sp,8
   20b04:	f800283a 	ret

00020b08 <OC_I2C_Write_Addr>:

bool  OC_I2C_Write_Addr(alt_32 i2c_base,alt_u8 device_address,alt_u8 sub_address, bool bStop){
   20b08:	defffa04 	addi	sp,sp,-24
   20b0c:	dfc00515 	stw	ra,20(sp)
   20b10:	df000415 	stw	fp,16(sp)
   20b14:	df000404 	addi	fp,sp,16
   20b18:	e13ffc15 	stw	r4,-16(fp)
   20b1c:	2809883a 	mov	r4,r5
   20b20:	3007883a 	mov	r3,r6
   20b24:	3805883a 	mov	r2,r7
   20b28:	e13ffd05 	stb	r4,-12(fp)
   20b2c:	e0fffe05 	stb	r3,-8(fp)
   20b30:	e0bfff05 	stb	r2,-4(fp)
    //BYTE data = 0x0;
    alt_32 Data32;
    int i;

   //set the tx reg audio chip dev address with write bit
   IOWR( i2c_base, 3,device_address);
   20b34:	e0bffc17 	ldw	r2,-16(fp)
   20b38:	10800304 	addi	r2,r2,12
   20b3c:	1007883a 	mov	r3,r2
   20b40:	e0bffd03 	ldbu	r2,-12(fp)
   20b44:	18800035 	stwio	r2,0(r3)
   //set STA and WR bits(bit7 and bit4)
   IOWR( i2c_base, 4,0x90);
   20b48:	e0bffc17 	ldw	r2,-16(fp)
   20b4c:	10800404 	addi	r2,r2,16
   20b50:	1007883a 	mov	r3,r2
   20b54:	00802404 	movi	r2,144
   20b58:	18800035 	stwio	r2,0(r3)
   //wait TIP bit go to 0 to end Tx
   if (!ACK_check( i2c_base)){
   20b5c:	e13ffc17 	ldw	r4,-16(fp)
   20b60:	00206040 	call	20604 <ACK_check>
   20b64:	1080005c 	xori	r2,r2,1
   20b68:	10803fcc 	andi	r2,r2,255
   20b6c:	10000526 	beq	r2,zero,20b84 <OC_I2C_Write_Addr+0x7c>
       printf("OC_I2C_Read error[2]\r\n");
   20b70:	010000f4 	movhi	r4,3
   20b74:	21105704 	addi	r4,r4,16732
   20b78:	002727c0 	call	2727c <puts>
       return FALSE;
   20b7c:	0005883a 	mov	r2,zero
   20b80:	00001e06 	br	20bfc <OC_I2C_Write_Addr+0xf4>
   }
   IOWR(i2c_base, 3,sub_address);
   20b84:	e0bffc17 	ldw	r2,-16(fp)
   20b88:	10800304 	addi	r2,r2,12
   20b8c:	1007883a 	mov	r3,r2
   20b90:	e0bffe03 	ldbu	r2,-8(fp)
   20b94:	18800035 	stwio	r2,0(r3)

   //set WR bits(bit4)
   IOWR( i2c_base, 4,0x10);
   20b98:	e0bffc17 	ldw	r2,-16(fp)
   20b9c:	10800404 	addi	r2,r2,16
   20ba0:	1007883a 	mov	r3,r2
   20ba4:	00800404 	movi	r2,16
   20ba8:	18800035 	stwio	r2,0(r3)
   //wait TIP bit go to 0 to end Tx
    if (!ACK_check( i2c_base)){
   20bac:	e13ffc17 	ldw	r4,-16(fp)
   20bb0:	00206040 	call	20604 <ACK_check>
   20bb4:	1080005c 	xori	r2,r2,1
   20bb8:	10803fcc 	andi	r2,r2,255
   20bbc:	10000526 	beq	r2,zero,20bd4 <OC_I2C_Write_Addr+0xcc>
        printf("OC_I2C_Read error[5]\r\n");
   20bc0:	010000f4 	movhi	r4,3
   20bc4:	21105d04 	addi	r4,r4,16756
   20bc8:	002727c0 	call	2727c <puts>
        return FALSE;
   20bcc:	0005883a 	mov	r2,zero
   20bd0:	00000a06 	br	20bfc <OC_I2C_Write_Addr+0xf4>
    }

    if (bStop){
   20bd4:	e0bfff03 	ldbu	r2,-4(fp)
   20bd8:	10000726 	beq	r2,zero,20bf8 <OC_I2C_Write_Addr+0xf0>
        IOWR( i2c_base, 4,0x40);
   20bdc:	e0bffc17 	ldw	r2,-16(fp)
   20be0:	10800404 	addi	r2,r2,16
   20be4:	1007883a 	mov	r3,r2
   20be8:	00801004 	movi	r2,64
   20bec:	18800035 	stwio	r2,0(r3)
        usleep(SLEEP_TIME);
   20bf0:	01003e84 	movi	r4,250
   20bf4:	00320640 	call	32064 <usleep>
    }

   return TRUE;
   20bf8:	00800044 	movi	r2,1

}
   20bfc:	e037883a 	mov	sp,fp
   20c00:	dfc00117 	ldw	ra,4(sp)
   20c04:	df000017 	ldw	fp,0(sp)
   20c08:	dec00204 	addi	sp,sp,8
   20c0c:	f800283a 	ret

00020c10 <OC_I2C_Read_Continue>:



bool  OC_I2C_Read_Continue(alt_32 i2c_base,alt_u8 device_address, alt_u8 *pData8, int nReadLength){
   20c10:	defff804 	addi	sp,sp,-32
   20c14:	dfc00715 	stw	ra,28(sp)
   20c18:	df000615 	stw	fp,24(sp)
   20c1c:	df000604 	addi	fp,sp,24
   20c20:	e13ffc15 	stw	r4,-16(fp)
   20c24:	2805883a 	mov	r2,r5
   20c28:	e1bffe15 	stw	r6,-8(fp)
   20c2c:	e1ffff15 	stw	r7,-4(fp)
   20c30:	e0bffd05 	stb	r2,-12(fp)
	int i;
	alt_u32 Data32;

    IOWR(i2c_base, 3,device_address|0x01);
   20c34:	e0bffc17 	ldw	r2,-16(fp)
   20c38:	10800304 	addi	r2,r2,12
   20c3c:	1007883a 	mov	r3,r2
   20c40:	e0bffd03 	ldbu	r2,-12(fp)
   20c44:	10800054 	ori	r2,r2,1
   20c48:	10803fcc 	andi	r2,r2,255
   20c4c:	18800035 	stwio	r2,0(r3)

   //set STA and WR bits(bit7 and bit4)
    IOWR( i2c_base, 4,0x90);
   20c50:	e0bffc17 	ldw	r2,-16(fp)
   20c54:	10800404 	addi	r2,r2,16
   20c58:	1007883a 	mov	r3,r2
   20c5c:	00802404 	movi	r2,144
   20c60:	18800035 	stwio	r2,0(r3)
//usleep(5*1000);
   //wait TIP bit go to 0 to end Tx
    if (!ACK_check( i2c_base)){
   20c64:	e13ffc17 	ldw	r4,-16(fp)
   20c68:	00206040 	call	20604 <ACK_check>
   20c6c:	1080005c 	xori	r2,r2,1
   20c70:	10803fcc 	andi	r2,r2,255
   20c74:	10000526 	beq	r2,zero,20c8c <OC_I2C_Read_Continue+0x7c>
        printf("OC_I2C_Read error[8]\r\n");
   20c78:	010000f4 	movhi	r4,3
   20c7c:	21106304 	addi	r4,r4,16780
   20c80:	002727c0 	call	2727c <puts>
        return FALSE;
   20c84:	0005883a 	mov	r2,zero
   20c88:	00002e06 	br	20d44 <OC_I2C_Read_Continue+0x134>
    }

    for(i=0;i<nReadLength;i++){
   20c8c:	e03ffa15 	stw	zero,-24(fp)
   20c90:	00002106 	br	20d18 <OC_I2C_Read_Continue+0x108>
  // printf("\n read receive ACK-device address(read)! \n");
   //set the RD and ACK bit(bit5 and bit3)
    	IOWR( i2c_base, 4,((i+1) == nReadLength)?0x28:0x20);
   20c94:	e0bffc17 	ldw	r2,-16(fp)
   20c98:	10800404 	addi	r2,r2,16
   20c9c:	1009883a 	mov	r4,r2
   20ca0:	e0bffa17 	ldw	r2,-24(fp)
   20ca4:	10c00044 	addi	r3,r2,1
   20ca8:	e0bfff17 	ldw	r2,-4(fp)
   20cac:	1880021e 	bne	r3,r2,20cb8 <OC_I2C_Read_Continue+0xa8>
   20cb0:	00800a04 	movi	r2,40
   20cb4:	00000106 	br	20cbc <OC_I2C_Read_Continue+0xac>
   20cb8:	00800804 	movi	r2,32
   20cbc:	20800035 	stwio	r2,0(r4)

        if (!ACK_judge_for_read( i2c_base)){
   20cc0:	e13ffc17 	ldw	r4,-16(fp)
   20cc4:	00208b80 	call	208b8 <ACK_judge_for_read>
   20cc8:	1080005c 	xori	r2,r2,1
   20ccc:	10803fcc 	andi	r2,r2,255
   20cd0:	10000526 	beq	r2,zero,20ce8 <OC_I2C_Read_Continue+0xd8>
            printf("OC_I2C_Read error[10]\r\n");
   20cd4:	010000f4 	movhi	r4,3
   20cd8:	21106904 	addi	r4,r4,16804
   20cdc:	002727c0 	call	2727c <puts>
            return FALSE;
   20ce0:	0005883a 	mov	r2,zero
   20ce4:	00001706 	br	20d44 <OC_I2C_Read_Continue+0x134>
        }
   // printf("\n read receive ACK-device address(read)! \n");

        Data32=IORD( i2c_base, 3);
   20ce8:	e0bffc17 	ldw	r2,-16(fp)
   20cec:	10800304 	addi	r2,r2,12
   20cf0:	10800037 	ldwio	r2,0(r2)
   20cf4:	e0bffb15 	stw	r2,-20(fp)
        *(pData8+i) =  Data32 & 0xff;
   20cf8:	e0bffa17 	ldw	r2,-24(fp)
   20cfc:	e0fffe17 	ldw	r3,-8(fp)
   20d00:	1885883a 	add	r2,r3,r2
   20d04:	e0fffb17 	ldw	r3,-20(fp)
   20d08:	10c00005 	stb	r3,0(r2)
    if (!ACK_check( i2c_base)){
        printf("OC_I2C_Read error[8]\r\n");
        return FALSE;
    }

    for(i=0;i<nReadLength;i++){
   20d0c:	e0bffa17 	ldw	r2,-24(fp)
   20d10:	10800044 	addi	r2,r2,1
   20d14:	e0bffa15 	stw	r2,-24(fp)
   20d18:	e0fffa17 	ldw	r3,-24(fp)
   20d1c:	e0bfff17 	ldw	r2,-4(fp)
   20d20:	18bfdc16 	blt	r3,r2,20c94 <__alt_data_end+0xfffe1894>

        Data32=IORD( i2c_base, 3);
        *(pData8+i) =  Data32 & 0xff;
    }

    IOWR( i2c_base, 4,0x40);
   20d24:	e0bffc17 	ldw	r2,-16(fp)
   20d28:	10800404 	addi	r2,r2,16
   20d2c:	1007883a 	mov	r3,r2
   20d30:	00801004 	movi	r2,64
   20d34:	18800035 	stwio	r2,0(r3)

  // Sleep(10);
   //OS_msleep(1);
    usleep(SLEEP_TIME);
   20d38:	01003e84 	movi	r4,250
   20d3c:	00320640 	call	32064 <usleep>
 //  printf(" Read  [%02X] = %02Xh\r\n", sub_address, data);


   return TRUE;
   20d40:	00800044 	movi	r2,1

}
   20d44:	e037883a 	mov	sp,fp
   20d48:	dfc00117 	ldw	ra,4(sp)
   20d4c:	df000017 	ldw	fp,0(sp)
   20d50:	dec00204 	addi	sp,sp,8
   20d54:	f800283a 	ret

00020d58 <OC_I2CL_Write>:


//  size > 2Kb
bool  OC_I2CL_Write(alt_32 i2c_base,alt_u8 device_address,alt_u16 sub_address,alt_u8 *pData, int nWriteLength)
    {
   20d58:	defff804 	addi	sp,sp,-32
   20d5c:	dfc00715 	stw	ra,28(sp)
   20d60:	df000615 	stw	fp,24(sp)
   20d64:	df000604 	addi	fp,sp,24
   20d68:	e13ffc15 	stw	r4,-16(fp)
   20d6c:	2807883a 	mov	r3,r5
   20d70:	3005883a 	mov	r2,r6
   20d74:	e1ffff15 	stw	r7,-4(fp)
   20d78:	e0fffd05 	stb	r3,-12(fp)
   20d7c:	e0bffe0d 	sth	r2,-8(fp)
    //DWORD reg_data = 0x0;
	alt_u8 AddrHigh, AddrLow;
    //int count= 0;

    AddrHigh = (sub_address >> 8) & 0xFF;
   20d80:	e0bffe0b 	ldhu	r2,-8(fp)
   20d84:	1004d23a 	srli	r2,r2,8
   20d88:	e0bffb05 	stb	r2,-20(fp)
    AddrLow  = sub_address & 0xFF;
   20d8c:	e0bffe0b 	ldhu	r2,-8(fp)
   20d90:	e0bffb45 	stb	r2,-19(fp)

    int i;

    //set the tx reg audio chip dev address with write bit
   if (!Write32_Data( i2c_base, 3,device_address))
   20d94:	e0bffd03 	ldbu	r2,-12(fp)
   20d98:	100d883a 	mov	r6,r2
   20d9c:	014000c4 	movi	r5,3
   20da0:	e13ffc17 	ldw	r4,-16(fp)
   20da4:	00202900 	call	20290 <Write32_Data>
   20da8:	1080005c 	xori	r2,r2,1
   20dac:	10803fcc 	andi	r2,r2,255
   20db0:	10000226 	beq	r2,zero,20dbc <OC_I2CL_Write+0x64>
       return FALSE;
   20db4:	0005883a 	mov	r2,zero
   20db8:	00007d06 	br	20fb0 <OC_I2CL_Write+0x258>
   //set STA and WR bits(bit7 and bit4)
   if (!Write32_Data( i2c_base, 4,0x90))//0x90
   20dbc:	01802404 	movi	r6,144
   20dc0:	01400104 	movi	r5,4
   20dc4:	e13ffc17 	ldw	r4,-16(fp)
   20dc8:	00202900 	call	20290 <Write32_Data>
   20dcc:	1080005c 	xori	r2,r2,1
   20dd0:	10803fcc 	andi	r2,r2,255
   20dd4:	10000226 	beq	r2,zero,20de0 <OC_I2CL_Write+0x88>
       return FALSE;
   20dd8:	0005883a 	mov	r2,zero
   20ddc:	00007406 	br	20fb0 <OC_I2CL_Write+0x258>

   //wait TIP bit go to 0 to end Tx
    if(!ACK_check( i2c_base)){
   20de0:	e13ffc17 	ldw	r4,-16(fp)
   20de4:	00206040 	call	20604 <ACK_check>
   20de8:	1080005c 	xori	r2,r2,1
   20dec:	10803fcc 	andi	r2,r2,255
   20df0:	10000526 	beq	r2,zero,20e08 <OC_I2CL_Write+0xb0>
        printf("OC_I2CL_Write error[0]\r\n");
   20df4:	010000f4 	movhi	r4,3
   20df8:	21106f04 	addi	r4,r4,16828
   20dfc:	002727c0 	call	2727c <puts>
        return FALSE;
   20e00:	0005883a 	mov	r2,zero
   20e04:	00006a06 	br	20fb0 <OC_I2CL_Write+0x258>
  // printf("\n receive ACK-device address! \n");

   //set the txr reg data with reg address + 1 data MSB
 //  reg_data  = (sub_address << 1) & 0xFE;
   //reg_data |= ((data >> 8) & 0x01);
   if (!Write32_Data( i2c_base, 3,AddrHigh))//reg_data&0xff);
   20e08:	e0bffb03 	ldbu	r2,-20(fp)
   20e0c:	100d883a 	mov	r6,r2
   20e10:	014000c4 	movi	r5,3
   20e14:	e13ffc17 	ldw	r4,-16(fp)
   20e18:	00202900 	call	20290 <Write32_Data>
   20e1c:	1080005c 	xori	r2,r2,1
   20e20:	10803fcc 	andi	r2,r2,255
   20e24:	10000226 	beq	r2,zero,20e30 <OC_I2CL_Write+0xd8>
       return FALSE;
   20e28:	0005883a 	mov	r2,zero
   20e2c:	00006006 	br	20fb0 <OC_I2CL_Write+0x258>

   //set WR bits(bit4)
    if (!Write32_Data( i2c_base, 4,0x10))
   20e30:	01800404 	movi	r6,16
   20e34:	01400104 	movi	r5,4
   20e38:	e13ffc17 	ldw	r4,-16(fp)
   20e3c:	00202900 	call	20290 <Write32_Data>
   20e40:	1080005c 	xori	r2,r2,1
   20e44:	10803fcc 	andi	r2,r2,255
   20e48:	10000226 	beq	r2,zero,20e54 <OC_I2CL_Write+0xfc>
        return FALSE;
   20e4c:	0005883a 	mov	r2,zero
   20e50:	00005706 	br	20fb0 <OC_I2CL_Write+0x258>

   //wait TIP bit go to 0 to end Tx
    if(!ACK_check( i2c_base)){
   20e54:	e13ffc17 	ldw	r4,-16(fp)
   20e58:	00206040 	call	20604 <ACK_check>
   20e5c:	1080005c 	xori	r2,r2,1
   20e60:	10803fcc 	andi	r2,r2,255
   20e64:	10000526 	beq	r2,zero,20e7c <OC_I2CL_Write+0x124>
        printf("OC_I2CL_Write error[1]\r\n");
   20e68:	010000f4 	movhi	r4,3
   20e6c:	21107504 	addi	r4,r4,16852
   20e70:	002727c0 	call	2727c <puts>
        return FALSE;
   20e74:	0005883a 	mov	r2,zero
   20e78:	00004d06 	br	20fb0 <OC_I2CL_Write+0x258>
    }
  // printf("\n receive ACK-reg high address! \n");

   //set the txr reg data with reg address + 1 data MSB
   if (!Write32_Data( i2c_base, 3,AddrLow))//reg_data&0xff);
   20e7c:	e0bffb43 	ldbu	r2,-19(fp)
   20e80:	100d883a 	mov	r6,r2
   20e84:	014000c4 	movi	r5,3
   20e88:	e13ffc17 	ldw	r4,-16(fp)
   20e8c:	00202900 	call	20290 <Write32_Data>
   20e90:	1080005c 	xori	r2,r2,1
   20e94:	10803fcc 	andi	r2,r2,255
   20e98:	10000226 	beq	r2,zero,20ea4 <OC_I2CL_Write+0x14c>
       return FALSE;
   20e9c:	0005883a 	mov	r2,zero
   20ea0:	00004306 	br	20fb0 <OC_I2CL_Write+0x258>

   //set WR bits(bit4)
    Write32_Data( i2c_base, 4,0x10);
   20ea4:	01800404 	movi	r6,16
   20ea8:	01400104 	movi	r5,4
   20eac:	e13ffc17 	ldw	r4,-16(fp)
   20eb0:	00202900 	call	20290 <Write32_Data>

   //wait TIP bit go to 0 to end Tx
    if(!ACK_check( i2c_base)){
   20eb4:	e13ffc17 	ldw	r4,-16(fp)
   20eb8:	00206040 	call	20604 <ACK_check>
   20ebc:	1080005c 	xori	r2,r2,1
   20ec0:	10803fcc 	andi	r2,r2,255
   20ec4:	10000526 	beq	r2,zero,20edc <OC_I2CL_Write+0x184>
        printf("OC_I2CL_Write error[2]\r\n");
   20ec8:	010000f4 	movhi	r4,3
   20ecc:	21107b04 	addi	r4,r4,16876
   20ed0:	002727c0 	call	2727c <puts>
        return FALSE;
   20ed4:	0005883a 	mov	r2,zero
   20ed8:	00003506 	br	20fb0 <OC_I2CL_Write+0x258>
    }
  //  printf("\n receive ACK-reg low address! \n");

#if 1
    //for( i=nWriteLength-1;i>=0;i--){
    for( i=0;i<nWriteLength;i++){
   20edc:	e03ffa15 	stw	zero,-24(fp)
   20ee0:	00002406 	br	20f74 <OC_I2CL_Write+0x21c>

        //set the txr reg data with the other data 8 bit LSB
        if (!Write32_Data( i2c_base, 3,*(pData+i)))
   20ee4:	e0bffa17 	ldw	r2,-24(fp)
   20ee8:	e0ffff17 	ldw	r3,-4(fp)
   20eec:	1885883a 	add	r2,r3,r2
   20ef0:	10800003 	ldbu	r2,0(r2)
   20ef4:	10803fcc 	andi	r2,r2,255
   20ef8:	100d883a 	mov	r6,r2
   20efc:	014000c4 	movi	r5,3
   20f00:	e13ffc17 	ldw	r4,-16(fp)
   20f04:	00202900 	call	20290 <Write32_Data>
   20f08:	1080005c 	xori	r2,r2,1
   20f0c:	10803fcc 	andi	r2,r2,255
   20f10:	10000226 	beq	r2,zero,20f1c <OC_I2CL_Write+0x1c4>
            return FALSE;
   20f14:	0005883a 	mov	r2,zero
   20f18:	00002506 	br	20fb0 <OC_I2CL_Write+0x258>

       //set STO and WR bits(bit7 and bit4)
        if (!Write32_Data( i2c_base, 4,0x10))
   20f1c:	01800404 	movi	r6,16
   20f20:	01400104 	movi	r5,4
   20f24:	e13ffc17 	ldw	r4,-16(fp)
   20f28:	00202900 	call	20290 <Write32_Data>
   20f2c:	1080005c 	xori	r2,r2,1
   20f30:	10803fcc 	andi	r2,r2,255
   20f34:	10000226 	beq	r2,zero,20f40 <OC_I2CL_Write+0x1e8>
            return FALSE;
   20f38:	0005883a 	mov	r2,zero
   20f3c:	00001c06 	br	20fb0 <OC_I2CL_Write+0x258>

        //wait TIP bit go to 0 to end Tx
         if(!ACK_check( i2c_base)){
   20f40:	e13ffc17 	ldw	r4,-16(fp)
   20f44:	00206040 	call	20604 <ACK_check>
   20f48:	1080005c 	xori	r2,r2,1
   20f4c:	10803fcc 	andi	r2,r2,255
   20f50:	10000526 	beq	r2,zero,20f68 <OC_I2CL_Write+0x210>
             printf("OC_I2CL_Write error[3]\r\n");
   20f54:	010000f4 	movhi	r4,3
   20f58:	21108104 	addi	r4,r4,16900
   20f5c:	002727c0 	call	2727c <puts>
             return FALSE;
   20f60:	0005883a 	mov	r2,zero
   20f64:	00001206 	br	20fb0 <OC_I2CL_Write+0x258>
    }
  //  printf("\n receive ACK-reg low address! \n");

#if 1
    //for( i=nWriteLength-1;i>=0;i--){
    for( i=0;i<nWriteLength;i++){
   20f68:	e0bffa17 	ldw	r2,-24(fp)
   20f6c:	10800044 	addi	r2,r2,1
   20f70:	e0bffa15 	stw	r2,-24(fp)
   20f74:	e0fffa17 	ldw	r3,-24(fp)
   20f78:	e0800217 	ldw	r2,8(fp)
   20f7c:	18bfd916 	blt	r3,r2,20ee4 <__alt_data_end+0xfffe1ae4>
   //wait TIP bit go to 0 to end Tx
    if(!ACK_check( i2c_base))
        return FALSE;

#endif
    if (!Write32_Data( i2c_base, 4,0x40))
   20f80:	01801004 	movi	r6,64
   20f84:	01400104 	movi	r5,4
   20f88:	e13ffc17 	ldw	r4,-16(fp)
   20f8c:	00202900 	call	20290 <Write32_Data>
   20f90:	1080005c 	xori	r2,r2,1
   20f94:	10803fcc 	andi	r2,r2,255
   20f98:	10000226 	beq	r2,zero,20fa4 <OC_I2CL_Write+0x24c>
         return FALSE;
   20f9c:	0005883a 	mov	r2,zero
   20fa0:	00000306 	br	20fb0 <OC_I2CL_Write+0x258>

     //OS_msleep(1);
      usleep(SLEEP_TIME);
   20fa4:	01003e84 	movi	r4,250
   20fa8:	00320640 	call	32064 <usleep>
  //  printf("\n receive ACK-data! \n");

     return TRUE;
   20fac:	00800044 	movi	r2,1
}
   20fb0:	e037883a 	mov	sp,fp
   20fb4:	dfc00117 	ldw	ra,4(sp)
   20fb8:	df000017 	ldw	fp,0(sp)
   20fbc:	dec00204 	addi	sp,sp,8
   20fc0:	f800283a 	ret

00020fc4 <OC_I2CL_Read>:

   return TRUE;

} */

bool  OC_I2CL_Read(alt_32 i2c_base,alt_u8 device_address, alt_u16 sub_address, alt_u8 *pData8, int nReadLength){
   20fc4:	defff704 	addi	sp,sp,-36
   20fc8:	dfc00815 	stw	ra,32(sp)
   20fcc:	df000715 	stw	fp,28(sp)
   20fd0:	df000704 	addi	fp,sp,28
   20fd4:	e13ffc15 	stw	r4,-16(fp)
   20fd8:	2807883a 	mov	r3,r5
   20fdc:	3005883a 	mov	r2,r6
   20fe0:	e1ffff15 	stw	r7,-4(fp)
   20fe4:	e0fffd05 	stb	r3,-12(fp)
   20fe8:	e0bffe0d 	sth	r2,-8(fp)
    int i;

    alt_u8 AddrHigh, AddrLow;
    alt_u8 DataHigh, DataLow;

    AddrHigh = (sub_address >> 8) & 0xFF;
   20fec:	e0bffe0b 	ldhu	r2,-8(fp)
   20ff0:	1004d23a 	srli	r2,r2,8
   20ff4:	e0bffa05 	stb	r2,-24(fp)
    AddrLow  = sub_address & 0xFF;
   20ff8:	e0bffe0b 	ldhu	r2,-8(fp)
   20ffc:	e0bffa45 	stb	r2,-23(fp)


   //set the tx reg audio chip dev address with write bit
   if (!Write32_Data( i2c_base, 3,device_address))
   21000:	e0bffd03 	ldbu	r2,-12(fp)
   21004:	100d883a 	mov	r6,r2
   21008:	014000c4 	movi	r5,3
   2100c:	e13ffc17 	ldw	r4,-16(fp)
   21010:	00202900 	call	20290 <Write32_Data>
   21014:	1080005c 	xori	r2,r2,1
   21018:	10803fcc 	andi	r2,r2,255
   2101c:	10000226 	beq	r2,zero,21028 <OC_I2CL_Read+0x64>
       return FALSE;
   21020:	0005883a 	mov	r2,zero
   21024:	00009e06 	br	212a0 <OC_I2CL_Read+0x2dc>

   //set STA and WR bits(bit7 and bit4)
   if (!Write32_Data( i2c_base, 4,0x90))
   21028:	01802404 	movi	r6,144
   2102c:	01400104 	movi	r5,4
   21030:	e13ffc17 	ldw	r4,-16(fp)
   21034:	00202900 	call	20290 <Write32_Data>
   21038:	1080005c 	xori	r2,r2,1
   2103c:	10803fcc 	andi	r2,r2,255
   21040:	10000226 	beq	r2,zero,2104c <OC_I2CL_Read+0x88>
       return FALSE;
   21044:	0005883a 	mov	r2,zero
   21048:	00009506 	br	212a0 <OC_I2CL_Read+0x2dc>

   //wait TIP bit go to 0 to end Tx
    if(!ACK_check( i2c_base)){
   2104c:	e13ffc17 	ldw	r4,-16(fp)
   21050:	00206040 	call	20604 <ACK_check>
   21054:	1080005c 	xori	r2,r2,1
   21058:	10803fcc 	andi	r2,r2,255
   2105c:	10000526 	beq	r2,zero,21074 <OC_I2CL_Read+0xb0>
        printf("OC_I2CL_Read error[0]\r\n");
   21060:	010000f4 	movhi	r4,3
   21064:	21108704 	addi	r4,r4,16924
   21068:	002727c0 	call	2727c <puts>
        return FALSE;
   2106c:	0005883a 	mov	r2,zero
   21070:	00008b06 	br	212a0 <OC_I2CL_Read+0x2dc>
 //  printf("\n receive ACK-device address! \n");


   //set the txr reg data with reg address + 0

   if (!Write32_Data( i2c_base, 3,AddrHigh))//reg_data&0xff);
   21074:	e0bffa03 	ldbu	r2,-24(fp)
   21078:	100d883a 	mov	r6,r2
   2107c:	014000c4 	movi	r5,3
   21080:	e13ffc17 	ldw	r4,-16(fp)
   21084:	00202900 	call	20290 <Write32_Data>
   21088:	1080005c 	xori	r2,r2,1
   2108c:	10803fcc 	andi	r2,r2,255
   21090:	10000226 	beq	r2,zero,2109c <OC_I2CL_Read+0xd8>
       return FALSE;
   21094:	0005883a 	mov	r2,zero
   21098:	00008106 	br	212a0 <OC_I2CL_Read+0x2dc>

   //set WR bits(bit4)
    if (!Write32_Data( i2c_base, 4,0x10))
   2109c:	01800404 	movi	r6,16
   210a0:	01400104 	movi	r5,4
   210a4:	e13ffc17 	ldw	r4,-16(fp)
   210a8:	00202900 	call	20290 <Write32_Data>
   210ac:	1080005c 	xori	r2,r2,1
   210b0:	10803fcc 	andi	r2,r2,255
   210b4:	10000226 	beq	r2,zero,210c0 <OC_I2CL_Read+0xfc>
        return FALSE;
   210b8:	0005883a 	mov	r2,zero
   210bc:	00007806 	br	212a0 <OC_I2CL_Read+0x2dc>

   //wait TIP bit go to 0 to end Tx
    if(!ACK_check( i2c_base)){
   210c0:	e13ffc17 	ldw	r4,-16(fp)
   210c4:	00206040 	call	20604 <ACK_check>
   210c8:	1080005c 	xori	r2,r2,1
   210cc:	10803fcc 	andi	r2,r2,255
   210d0:	10000526 	beq	r2,zero,210e8 <OC_I2CL_Read+0x124>
        printf("OC_I2CL_Read error[1]\r\n");
   210d4:	010000f4 	movhi	r4,3
   210d8:	21108d04 	addi	r4,r4,16948
   210dc:	002727c0 	call	2727c <puts>
        return FALSE;
   210e0:	0005883a 	mov	r2,zero
   210e4:	00006e06 	br	212a0 <OC_I2CL_Read+0x2dc>
    }
//   printf("\n read receive ACK-reg High address! \n");

     //set the txr reg data with reg address + 0
   if (!Write32_Data( i2c_base, 3,AddrLow)) //;//reg_data&0xff);
   210e8:	e0bffa43 	ldbu	r2,-23(fp)
   210ec:	100d883a 	mov	r6,r2
   210f0:	014000c4 	movi	r5,3
   210f4:	e13ffc17 	ldw	r4,-16(fp)
   210f8:	00202900 	call	20290 <Write32_Data>
   210fc:	1080005c 	xori	r2,r2,1
   21100:	10803fcc 	andi	r2,r2,255
   21104:	10000226 	beq	r2,zero,21110 <OC_I2CL_Read+0x14c>
       return FALSE;
   21108:	0005883a 	mov	r2,zero
   2110c:	00006406 	br	212a0 <OC_I2CL_Read+0x2dc>
   //set WR bits(bit4)
    if (!Write32_Data( i2c_base, 4,0x10))
   21110:	01800404 	movi	r6,16
   21114:	01400104 	movi	r5,4
   21118:	e13ffc17 	ldw	r4,-16(fp)
   2111c:	00202900 	call	20290 <Write32_Data>
   21120:	1080005c 	xori	r2,r2,1
   21124:	10803fcc 	andi	r2,r2,255
   21128:	10000226 	beq	r2,zero,21134 <OC_I2CL_Read+0x170>
        return FALSE;
   2112c:	0005883a 	mov	r2,zero
   21130:	00005b06 	br	212a0 <OC_I2CL_Read+0x2dc>

   //wait TIP bit go to 0 to end Tx
    if(!ACK_check( i2c_base)){
   21134:	e13ffc17 	ldw	r4,-16(fp)
   21138:	00206040 	call	20604 <ACK_check>
   2113c:	1080005c 	xori	r2,r2,1
   21140:	10803fcc 	andi	r2,r2,255
   21144:	10000526 	beq	r2,zero,2115c <OC_I2CL_Read+0x198>
        printf("OC_I2CL_Read error[2]\r\n");
   21148:	010000f4 	movhi	r4,3
   2114c:	21109304 	addi	r4,r4,16972
   21150:	002727c0 	call	2727c <puts>
        return FALSE;
   21154:	0005883a 	mov	r2,zero
   21158:	00005106 	br	212a0 <OC_I2CL_Read+0x2dc>

 //  printf("\n read receive ACK-reg Low address! \n");

   //read
    //set the tx reg audio chip dev address with read bit 1
     if (!Write32_Data( i2c_base, 3,device_address|0x01))
   2115c:	e0bffd03 	ldbu	r2,-12(fp)
   21160:	10800054 	ori	r2,r2,1
   21164:	10803fcc 	andi	r2,r2,255
   21168:	100d883a 	mov	r6,r2
   2116c:	014000c4 	movi	r5,3
   21170:	e13ffc17 	ldw	r4,-16(fp)
   21174:	00202900 	call	20290 <Write32_Data>
   21178:	1080005c 	xori	r2,r2,1
   2117c:	10803fcc 	andi	r2,r2,255
   21180:	10000226 	beq	r2,zero,2118c <OC_I2CL_Read+0x1c8>
         return FALSE;
   21184:	0005883a 	mov	r2,zero
   21188:	00004506 	br	212a0 <OC_I2CL_Read+0x2dc>

   //set STA and WR bits(bit7 and bit4)
     if (!Write32_Data( i2c_base, 4,0x90))
   2118c:	01802404 	movi	r6,144
   21190:	01400104 	movi	r5,4
   21194:	e13ffc17 	ldw	r4,-16(fp)
   21198:	00202900 	call	20290 <Write32_Data>
   2119c:	1080005c 	xori	r2,r2,1
   211a0:	10803fcc 	andi	r2,r2,255
   211a4:	10000226 	beq	r2,zero,211b0 <OC_I2CL_Read+0x1ec>
         return FALSE;
   211a8:	0005883a 	mov	r2,zero
   211ac:	00003c06 	br	212a0 <OC_I2CL_Read+0x2dc>

   //wait TIP bit go to 0 to end Tx
    if(!ACK_check( i2c_base)){
   211b0:	e13ffc17 	ldw	r4,-16(fp)
   211b4:	00206040 	call	20604 <ACK_check>
   211b8:	1080005c 	xori	r2,r2,1
   211bc:	10803fcc 	andi	r2,r2,255
   211c0:	10000526 	beq	r2,zero,211d8 <OC_I2CL_Read+0x214>
        printf("OC_I2CL_Read error[3]\r\n");
   211c4:	010000f4 	movhi	r4,3
   211c8:	21109904 	addi	r4,r4,16996
   211cc:	002727c0 	call	2727c <puts>
        return FALSE;
   211d0:	0005883a 	mov	r2,zero
   211d4:	00003206 	br	212a0 <OC_I2CL_Read+0x2dc>
//   printf("\n read receive ACK-device address(read)! \n");

       //read the rxr data

#if 1
    for(i=0;i<nReadLength;i++){
   211d8:	e03ff915 	stw	zero,-28(fp)
   211dc:	00002106 	br	21264 <OC_I2CL_Read+0x2a0>
  // printf("\n read receive ACK-device address(read)! \n");
   //set the RD and ACK bit(bit5 and bit3)
    	IOWR( i2c_base, 4,((i+1) == nReadLength)?0x28:0x20);
   211e0:	e0bffc17 	ldw	r2,-16(fp)
   211e4:	10800404 	addi	r2,r2,16
   211e8:	1009883a 	mov	r4,r2
   211ec:	e0bff917 	ldw	r2,-28(fp)
   211f0:	10c00044 	addi	r3,r2,1
   211f4:	e0800217 	ldw	r2,8(fp)
   211f8:	1880021e 	bne	r3,r2,21204 <OC_I2CL_Read+0x240>
   211fc:	00800a04 	movi	r2,40
   21200:	00000106 	br	21208 <OC_I2CL_Read+0x244>
   21204:	00800804 	movi	r2,32
   21208:	20800035 	stwio	r2,0(r4)

        if (!ACK_judge_for_read( i2c_base)){
   2120c:	e13ffc17 	ldw	r4,-16(fp)
   21210:	00208b80 	call	208b8 <ACK_judge_for_read>
   21214:	1080005c 	xori	r2,r2,1
   21218:	10803fcc 	andi	r2,r2,255
   2121c:	10000526 	beq	r2,zero,21234 <OC_I2CL_Read+0x270>
            printf("OC_I2CL_Read error[4]\r\n");
   21220:	010000f4 	movhi	r4,3
   21224:	21109f04 	addi	r4,r4,17020
   21228:	002727c0 	call	2727c <puts>
            return FALSE;
   2122c:	0005883a 	mov	r2,zero
   21230:	00001b06 	br	212a0 <OC_I2CL_Read+0x2dc>
        }
   // printf("\n read receive ACK-device address(read)! \n");

        Data32=IORD( i2c_base, 3);
   21234:	e0bffc17 	ldw	r2,-16(fp)
   21238:	10800304 	addi	r2,r2,12
   2123c:	10800037 	ldwio	r2,0(r2)
   21240:	e0bffb15 	stw	r2,-20(fp)
        *(pData8+i) =  Data32 & 0xff;
   21244:	e0bff917 	ldw	r2,-28(fp)
   21248:	e0ffff17 	ldw	r3,-4(fp)
   2124c:	1885883a 	add	r2,r3,r2
   21250:	e0fffb17 	ldw	r3,-20(fp)
   21254:	10c00005 	stb	r3,0(r2)
//   printf("\n read receive ACK-device address(read)! \n");

       //read the rxr data

#if 1
    for(i=0;i<nReadLength;i++){
   21258:	e0bff917 	ldw	r2,-28(fp)
   2125c:	10800044 	addi	r2,r2,1
   21260:	e0bff915 	stw	r2,-28(fp)
   21264:	e0fff917 	ldw	r3,-28(fp)
   21268:	e0800217 	ldw	r2,8(fp)
   2126c:	18bfdc16 	blt	r3,r2,211e0 <__alt_data_end+0xfffe1de0>
    DataLow =  Data32 & 0xff;

    pData16 = (DataHigh << 8) | DataLow;
#endif

   if (!Write32_Data( i2c_base, 4,0x40))
   21270:	01801004 	movi	r6,64
   21274:	01400104 	movi	r5,4
   21278:	e13ffc17 	ldw	r4,-16(fp)
   2127c:	00202900 	call	20290 <Write32_Data>
   21280:	1080005c 	xori	r2,r2,1
   21284:	10803fcc 	andi	r2,r2,255
   21288:	10000226 	beq	r2,zero,21294 <OC_I2CL_Read+0x2d0>
       return FALSE;
   2128c:	0005883a 	mov	r2,zero
   21290:	00000306 	br	212a0 <OC_I2CL_Read+0x2dc>

   //OS_msleep(1);
    usleep(SLEEP_TIME);
   21294:	01003e84 	movi	r4,250
   21298:	00320640 	call	32064 <usleep>

   return TRUE;
   2129c:	00800044 	movi	r2,1

}
   212a0:	e037883a 	mov	sp,fp
   212a4:	dfc00117 	ldw	ra,4(sp)
   212a8:	df000017 	ldw	fp,0(sp)
   212ac:	dec00204 	addi	sp,sp,8
   212b0:	f800283a 	ret

000212b4 <Light_Init>:

////////////////////////////////////////
// export API
static alt_u32 Light_I2C_Controller_Base = LIGHT_I2C_OPENCORES_BASE;

void Light_Init(alt_u32 I2C_Controller_Base){
   212b4:	defffb04 	addi	sp,sp,-20
   212b8:	dfc00415 	stw	ra,16(sp)
   212bc:	df000315 	stw	fp,12(sp)
   212c0:	df000304 	addi	fp,sp,12
   212c4:	e13fff15 	stw	r4,-4(fp)
	const int Ref_CLK = 50*1000*1000; // 50MHz
   212c8:	0080bef4 	movhi	r2,763
   212cc:	10bc2004 	addi	r2,r2,-3968
   212d0:	e0bffd15 	stw	r2,-12(fp)
	const int I2C_CLK = 400*1000; // 400KHz
   212d4:	008001b4 	movhi	r2,6
   212d8:	1086a004 	addi	r2,r2,6784
   212dc:	e0bffe15 	stw	r2,-8(fp)

	Light_I2C_Controller_Base = I2C_Controller_Base;
   212e0:	e0bfff17 	ldw	r2,-4(fp)
   212e4:	d0a00015 	stw	r2,-32768(gp)
	oc_i2c_init_ex(Light_I2C_Controller_Base, Ref_CLK, I2C_CLK);
   212e8:	d0a00017 	ldw	r2,-32768(gp)
   212ec:	e1bffe17 	ldw	r6,-8(fp)
   212f0:	e17ffd17 	ldw	r5,-12(fp)
   212f4:	1009883a 	mov	r4,r2
   212f8:	00203980 	call	20398 <oc_i2c_init_ex>
}
   212fc:	0001883a 	nop
   21300:	e037883a 	mov	sp,fp
   21304:	dfc00117 	ldw	ra,4(sp)
   21308:	df000017 	ldw	fp,0(sp)
   2130c:	dec00204 	addi	sp,sp,8
   21310:	f800283a 	ret

00021314 <Light_GetID>:

void Light_GetID(alt_u8 *data)
{
   21314:	defffc04 	addi	sp,sp,-16
   21318:	dfc00315 	stw	ra,12(sp)
   2131c:	df000215 	stw	fp,8(sp)
   21320:	df000204 	addi	fp,sp,8
   21324:	e13fff15 	stw	r4,-4(fp)
    bool bPass;
    alt_u8 CommandCode = COMMAND_CMD | ID_REG ;
   21328:	00bfe284 	movi	r2,-118
   2132c:	e0bffe05 	stb	r2,-8(fp)
    //read ID
    bPass = I2C_Read_Light( DEVICE_ADDR,CommandCode , data);
   21330:	e0bffe03 	ldbu	r2,-8(fp)
   21334:	e1bfff17 	ldw	r6,-4(fp)
   21338:	100b883a 	mov	r5,r2
   2133c:	01001484 	movi	r4,82
   21340:	00219a80 	call	219a8 <I2C_Read_Light>
   21344:	e0bffe45 	stb	r2,-7(fp)
    if(!bPass)  *data = 0;
   21348:	e0bffe43 	ldbu	r2,-7(fp)
   2134c:	1080005c 	xori	r2,r2,1
   21350:	10803fcc 	andi	r2,r2,255
   21354:	10000226 	beq	r2,zero,21360 <Light_GetID+0x4c>
   21358:	e0bfff17 	ldw	r2,-4(fp)
   2135c:	10000005 	stb	zero,0(r2)

}
   21360:	0001883a 	nop
   21364:	e037883a 	mov	sp,fp
   21368:	dfc00117 	ldw	ra,4(sp)
   2136c:	df000017 	ldw	fp,0(sp)
   21370:	dec00204 	addi	sp,sp,8
   21374:	f800283a 	ret

00021378 <Light_GetTiming>:

void Light_GetTiming(alt_u8 *data)
{
   21378:	defffc04 	addi	sp,sp,-16
   2137c:	dfc00315 	stw	ra,12(sp)
   21380:	df000215 	stw	fp,8(sp)
   21384:	df000204 	addi	fp,sp,8
   21388:	e13fff15 	stw	r4,-4(fp)
    bool bPass;
    alt_u8 CommandCode = COMMAND_CMD | TIMING_REG ;
   2138c:	00bfe044 	movi	r2,-127
   21390:	e0bffe05 	stb	r2,-8(fp)
    //read ID
    bPass = I2C_Read_Light( DEVICE_ADDR,CommandCode , data);
   21394:	e0bffe03 	ldbu	r2,-8(fp)
   21398:	e1bfff17 	ldw	r6,-4(fp)
   2139c:	100b883a 	mov	r5,r2
   213a0:	01001484 	movi	r4,82
   213a4:	00219a80 	call	219a8 <I2C_Read_Light>
   213a8:	e0bffe45 	stb	r2,-7(fp)
    if(!bPass)  *data = 0;
   213ac:	e0bffe43 	ldbu	r2,-7(fp)
   213b0:	1080005c 	xori	r2,r2,1
   213b4:	10803fcc 	andi	r2,r2,255
   213b8:	10000226 	beq	r2,zero,213c4 <Light_GetTiming+0x4c>
   213bc:	e0bfff17 	ldw	r2,-4(fp)
   213c0:	10000005 	stb	zero,0(r2)

}
   213c4:	0001883a 	nop
   213c8:	e037883a 	mov	sp,fp
   213cc:	dfc00117 	ldw	ra,4(sp)
   213d0:	df000017 	ldw	fp,0(sp)
   213d4:	dec00204 	addi	sp,sp,8
   213d8:	f800283a 	ret

000213dc <Light_PowerSwitch>:

bool Light_PowerSwitch(bool bSwitch)
{
   213dc:	defffc04 	addi	sp,sp,-16
   213e0:	dfc00315 	stw	ra,12(sp)
   213e4:	df000215 	stw	fp,8(sp)
   213e8:	df000204 	addi	fp,sp,8
   213ec:	2005883a 	mov	r2,r4
   213f0:	e0bfff05 	stb	r2,-4(fp)
    bool bPass;
    alt_u8 data = 0;
   213f4:	e03ffe05 	stb	zero,-8(fp)
    alt_u8 CommandCode = COMMAND_CMD | CONTROL_REG ;
   213f8:	00bfe004 	movi	r2,-128
   213fc:	e0bffe45 	stb	r2,-7(fp)

    data = bSwitch ? 0x03 : 0x00 ;
   21400:	e0bfff03 	ldbu	r2,-4(fp)
   21404:	10000226 	beq	r2,zero,21410 <Light_PowerSwitch+0x34>
   21408:	008000c4 	movi	r2,3
   2140c:	00000106 	br	21414 <Light_PowerSwitch+0x38>
   21410:	0005883a 	mov	r2,zero
   21414:	e0bffe05 	stb	r2,-8(fp)

    bPass = I2C_Write_Light( DEVICE_ADDR,CommandCode , data);
   21418:	e0bffe43 	ldbu	r2,-7(fp)
   2141c:	e0fffe03 	ldbu	r3,-8(fp)
   21420:	180d883a 	mov	r6,r3
   21424:	100b883a 	mov	r5,r2
   21428:	01001484 	movi	r4,82
   2142c:	00218c40 	call	218c4 <I2C_Write_Light>
   21430:	e0bffe85 	stb	r2,-6(fp)

    return bPass;
   21434:	e0bffe83 	ldbu	r2,-6(fp)
}
   21438:	e037883a 	mov	sp,fp
   2143c:	dfc00117 	ldw	ra,4(sp)
   21440:	df000017 	ldw	fp,0(sp)
   21444:	dec00204 	addi	sp,sp,8
   21448:	f800283a 	ret

0002144c <Light_Get_ADCData0>:

bool Light_Get_ADCData0(alt_u16 *pChannelData)
{
   2144c:	defffc04 	addi	sp,sp,-16
   21450:	dfc00315 	stw	ra,12(sp)
   21454:	df000215 	stw	fp,8(sp)
   21458:	df000204 	addi	fp,sp,8
   2145c:	e13fff15 	stw	r4,-4(fp)
    bool bPass;
    alt_u8 Data0Low, Data0High;
    alt_u8 CommandCode = COMMAND_CMD |  DATA0LOW ;
   21460:	00bfe304 	movi	r2,-116
   21464:	e0bffe05 	stb	r2,-8(fp)
    //alt_u8 CommandCode = 0x8C;

    bPass = I2C_Read_Light( DEVICE_ADDR,CommandCode , &Data0Low);
   21468:	e0bffe03 	ldbu	r2,-8(fp)
   2146c:	e0fffe84 	addi	r3,fp,-6
   21470:	180d883a 	mov	r6,r3
   21474:	100b883a 	mov	r5,r2
   21478:	01001484 	movi	r4,82
   2147c:	00219a80 	call	219a8 <I2C_Read_Light>
   21480:	e0bffe45 	stb	r2,-7(fp)
    if(!bPass)
   21484:	e0bffe43 	ldbu	r2,-7(fp)
   21488:	1080005c 	xori	r2,r2,1
   2148c:	10803fcc 	andi	r2,r2,255
   21490:	10000226 	beq	r2,zero,2149c <Light_Get_ADCData0+0x50>
    {
         return FALSE;
   21494:	0005883a 	mov	r2,zero
   21498:	00002506 	br	21530 <Light_Get_ADCData0+0xe4>
    }
    else *pChannelData = Data0Low;
   2149c:	e0bffe83 	ldbu	r2,-6(fp)
   214a0:	10c03fcc 	andi	r3,r2,255
   214a4:	e0bfff17 	ldw	r2,-4(fp)
   214a8:	10c0000d 	sth	r3,0(r2)

    if(bPass)
   214ac:	e0bffe43 	ldbu	r2,-7(fp)
   214b0:	10001426 	beq	r2,zero,21504 <Light_Get_ADCData0+0xb8>
    {
        CommandCode = COMMAND_CMD |  DATA0HIGH ;
   214b4:	00bfe344 	movi	r2,-115
   214b8:	e0bffe05 	stb	r2,-8(fp)
        //CommandCode = 0x8D;

        bPass = I2C_Read_Light( DEVICE_ADDR,CommandCode , &Data0High);
   214bc:	e0bffe03 	ldbu	r2,-8(fp)
   214c0:	e0fffec4 	addi	r3,fp,-5
   214c4:	180d883a 	mov	r6,r3
   214c8:	100b883a 	mov	r5,r2
   214cc:	01001484 	movi	r4,82
   214d0:	00219a80 	call	219a8 <I2C_Read_Light>
   214d4:	e0bffe45 	stb	r2,-7(fp)
        if(!bPass)
   214d8:	e0bffe43 	ldbu	r2,-7(fp)
   214dc:	1080005c 	xori	r2,r2,1
   214e0:	10803fcc 	andi	r2,r2,255
   214e4:	10000226 	beq	r2,zero,214f0 <Light_Get_ADCData0+0xa4>
        {
            return FALSE;
   214e8:	0005883a 	mov	r2,zero
   214ec:	00001006 	br	21530 <Light_Get_ADCData0+0xe4>
        }
        else *(pChannelData+1) = Data0High;
   214f0:	e0bfff17 	ldw	r2,-4(fp)
   214f4:	10800084 	addi	r2,r2,2
   214f8:	e0fffec3 	ldbu	r3,-5(fp)
   214fc:	18c03fcc 	andi	r3,r3,255
   21500:	10c0000d 	sth	r3,0(r2)
    }

    *pChannelData = (Data0High << 8) | Data0Low;
   21504:	e0bffec3 	ldbu	r2,-5(fp)
   21508:	10803fcc 	andi	r2,r2,255
   2150c:	1004923a 	slli	r2,r2,8
   21510:	1007883a 	mov	r3,r2
   21514:	e0bffe83 	ldbu	r2,-6(fp)
   21518:	10803fcc 	andi	r2,r2,255
   2151c:	1884b03a 	or	r2,r3,r2
   21520:	1007883a 	mov	r3,r2
   21524:	e0bfff17 	ldw	r2,-4(fp)
   21528:	10c0000d 	sth	r3,0(r2)

    return TRUE;
   2152c:	00800044 	movi	r2,1
}
   21530:	e037883a 	mov	sp,fp
   21534:	dfc00117 	ldw	ra,4(sp)
   21538:	df000017 	ldw	fp,0(sp)
   2153c:	dec00204 	addi	sp,sp,8
   21540:	f800283a 	ret

00021544 <Light_Get_ADCData1>:

bool Light_Get_ADCData1(alt_u16 *pChannelData)
{
   21544:	defffc04 	addi	sp,sp,-16
   21548:	dfc00315 	stw	ra,12(sp)
   2154c:	df000215 	stw	fp,8(sp)
   21550:	df000204 	addi	fp,sp,8
   21554:	e13fff15 	stw	r4,-4(fp)
    bool bPass;
    alt_u8 Data1Low, Data1High;
    alt_u8 CommandCode = COMMAND_CMD |  DATA1LOW ;
   21558:	00bfe384 	movi	r2,-114
   2155c:	e0bffe05 	stb	r2,-8(fp)

    bPass = I2C_Read_Light( DEVICE_ADDR,CommandCode , &Data1Low);
   21560:	e0bffe03 	ldbu	r2,-8(fp)
   21564:	e0fffe84 	addi	r3,fp,-6
   21568:	180d883a 	mov	r6,r3
   2156c:	100b883a 	mov	r5,r2
   21570:	01001484 	movi	r4,82
   21574:	00219a80 	call	219a8 <I2C_Read_Light>
   21578:	e0bffe45 	stb	r2,-7(fp)
    if(!bPass)
   2157c:	e0bffe43 	ldbu	r2,-7(fp)
   21580:	1080005c 	xori	r2,r2,1
   21584:	10803fcc 	andi	r2,r2,255
   21588:	10000226 	beq	r2,zero,21594 <Light_Get_ADCData1+0x50>
    {
         return FALSE;
   2158c:	0005883a 	mov	r2,zero
   21590:	00002506 	br	21628 <Light_Get_ADCData1+0xe4>
    }
    else *pChannelData = Data1Low;
   21594:	e0bffe83 	ldbu	r2,-6(fp)
   21598:	10c03fcc 	andi	r3,r2,255
   2159c:	e0bfff17 	ldw	r2,-4(fp)
   215a0:	10c0000d 	sth	r3,0(r2)

    if(bPass)
   215a4:	e0bffe43 	ldbu	r2,-7(fp)
   215a8:	10001426 	beq	r2,zero,215fc <Light_Get_ADCData1+0xb8>
    {
        CommandCode = COMMAND_CMD |  DATA1HIGH ;
   215ac:	00bfe3c4 	movi	r2,-113
   215b0:	e0bffe05 	stb	r2,-8(fp)

        bPass = I2C_Read_Light(DEVICE_ADDR,CommandCode , &Data1High);
   215b4:	e0bffe03 	ldbu	r2,-8(fp)
   215b8:	e0fffec4 	addi	r3,fp,-5
   215bc:	180d883a 	mov	r6,r3
   215c0:	100b883a 	mov	r5,r2
   215c4:	01001484 	movi	r4,82
   215c8:	00219a80 	call	219a8 <I2C_Read_Light>
   215cc:	e0bffe45 	stb	r2,-7(fp)
        if(!bPass)
   215d0:	e0bffe43 	ldbu	r2,-7(fp)
   215d4:	1080005c 	xori	r2,r2,1
   215d8:	10803fcc 	andi	r2,r2,255
   215dc:	10000226 	beq	r2,zero,215e8 <Light_Get_ADCData1+0xa4>
        {
            return FALSE;
   215e0:	0005883a 	mov	r2,zero
   215e4:	00001006 	br	21628 <Light_Get_ADCData1+0xe4>
        }
        else *(pChannelData+1) = Data1High;
   215e8:	e0bfff17 	ldw	r2,-4(fp)
   215ec:	10800084 	addi	r2,r2,2
   215f0:	e0fffec3 	ldbu	r3,-5(fp)
   215f4:	18c03fcc 	andi	r3,r3,255
   215f8:	10c0000d 	sth	r3,0(r2)
    }

    *pChannelData = (Data1High << 8) | Data1Low;
   215fc:	e0bffec3 	ldbu	r2,-5(fp)
   21600:	10803fcc 	andi	r2,r2,255
   21604:	1004923a 	slli	r2,r2,8
   21608:	1007883a 	mov	r3,r2
   2160c:	e0bffe83 	ldbu	r2,-6(fp)
   21610:	10803fcc 	andi	r2,r2,255
   21614:	1884b03a 	or	r2,r3,r2
   21618:	1007883a 	mov	r3,r2
   2161c:	e0bfff17 	ldw	r2,-4(fp)
   21620:	10c0000d 	sth	r3,0(r2)

    return TRUE;
   21624:	00800044 	movi	r2,1
}
   21628:	e037883a 	mov	sp,fp
   2162c:	dfc00117 	ldw	ra,4(sp)
   21630:	df000017 	ldw	fp,0(sp)
   21634:	dec00204 	addi	sp,sp,8
   21638:	f800283a 	ret

0002163c <Get_light>:

bool Get_light(alt_u16 *light0, alt_u16 *light1)
{
   2163c:	defffa04 	addi	sp,sp,-24
   21640:	dfc00515 	stw	ra,20(sp)
   21644:	df000415 	stw	fp,16(sp)
   21648:	df000404 	addi	fp,sp,16
   2164c:	e13ffe15 	stw	r4,-8(fp)
   21650:	e17fff15 	stw	r5,-4(fp)
    bool bPass = FALSE;
   21654:	e03ffc05 	stb	zero,-16(fp)
    alt_u8 device_Id = 0;
   21658:	e03ffc45 	stb	zero,-15(fp)

    alt_u16 ChannelData0;
    alt_u16 ChannelData1;

    //get light sensor Id
    Light_GetID(&device_Id);
   2165c:	e0bffc44 	addi	r2,fp,-15
   21660:	1009883a 	mov	r4,r2
   21664:	00213140 	call	21314 <Light_GetID>
    if(device_Id == 0)
   21668:	e0bffc43 	ldbu	r2,-15(fp)
   2166c:	10803fcc 	andi	r2,r2,255
   21670:	1000051e 	bne	r2,zero,21688 <Get_light+0x4c>
    {
        printf("read id fail \n");
   21674:	010000f4 	movhi	r4,3
   21678:	2110a504 	addi	r4,r4,17044
   2167c:	002727c0 	call	2727c <puts>
        return FALSE;
   21680:	0005883a 	mov	r2,zero
   21684:	00002106 	br	2170c <Get_light+0xd0>
    	//printf("Light Sensor ID=%xh\r\n", device_Id); //
    }


    //get adc channel 0 data
    bPass = Light_Get_ADCData0(&ChannelData0);
   21688:	e0bffc84 	addi	r2,fp,-14
   2168c:	1009883a 	mov	r4,r2
   21690:	002144c0 	call	2144c <Light_Get_ADCData0>
   21694:	e0bffc05 	stb	r2,-16(fp)
    if(!bPass)
   21698:	e0bffc03 	ldbu	r2,-16(fp)
   2169c:	1080005c 	xori	r2,r2,1
   216a0:	10803fcc 	andi	r2,r2,255
   216a4:	10000526 	beq	r2,zero,216bc <Get_light+0x80>
    {
        printf("Get ADC Channle 0 data fail \n");
   216a8:	010000f4 	movhi	r4,3
   216ac:	2110a904 	addi	r4,r4,17060
   216b0:	002727c0 	call	2727c <puts>
        return FALSE;
   216b4:	0005883a 	mov	r2,zero
   216b8:	00001406 	br	2170c <Get_light+0xd0>
    }
    *light0 = ChannelData0;
   216bc:	e0fffc8b 	ldhu	r3,-14(fp)
   216c0:	e0bffe17 	ldw	r2,-8(fp)
   216c4:	10c0000d 	sth	r3,0(r2)

    //get adc channel 1 data
    bPass = Light_Get_ADCData1(&ChannelData1);
   216c8:	e0bffd04 	addi	r2,fp,-12
   216cc:	1009883a 	mov	r4,r2
   216d0:	00215440 	call	21544 <Light_Get_ADCData1>
   216d4:	e0bffc05 	stb	r2,-16(fp)
    if(!bPass)
   216d8:	e0bffc03 	ldbu	r2,-16(fp)
   216dc:	1080005c 	xori	r2,r2,1
   216e0:	10803fcc 	andi	r2,r2,255
   216e4:	10000526 	beq	r2,zero,216fc <Get_light+0xc0>
    {
        printf("Get ADC Channle 1 data fail \n");
   216e8:	010000f4 	movhi	r4,3
   216ec:	2110b104 	addi	r4,r4,17092
   216f0:	002727c0 	call	2727c <puts>
        return FALSE;
   216f4:	0005883a 	mov	r2,zero
   216f8:	00000406 	br	2170c <Get_light+0xd0>
    }
    *light1 = ChannelData1;
   216fc:	e0fffd0b 	ldhu	r3,-12(fp)
   21700:	e0bfff17 	ldw	r2,-4(fp)
   21704:	10c0000d 	sth	r3,0(r2)
    return TRUE;
   21708:	00800044 	movi	r2,1
}
   2170c:	e037883a 	mov	sp,fp
   21710:	dfc00117 	ldw	ra,4(sp)
   21714:	df000017 	ldw	fp,0(sp)
   21718:	dec00204 	addi	sp,sp,8
   2171c:	f800283a 	ret

00021720 <Light_SetThreshLow>:


bool Light_SetThreshLow(alt_u8 *pData)
{
   21720:	defffc04 	addi	sp,sp,-16
   21724:	dfc00315 	stw	ra,12(sp)
   21728:	df000215 	stw	fp,8(sp)
   2172c:	df000204 	addi	fp,sp,8
   21730:	e13fff15 	stw	r4,-4(fp)
    bool bPass;
    alt_u8 CommandCode = COMMAND_CMD | COMMAND_WORD | THRESHLOWLOW_REG ;
   21734:	00bfe884 	movi	r2,-94
   21738:	e0bffe05 	stb	r2,-8(fp)

    bPass = I2C_Write_Light16( DEVICE_ADDR, CommandCode, pData);
   2173c:	e0bffe03 	ldbu	r2,-8(fp)
   21740:	e1bfff17 	ldw	r6,-4(fp)
   21744:	100b883a 	mov	r5,r2
   21748:	01001484 	movi	r4,82
   2174c:	00219380 	call	21938 <I2C_Write_Light16>
   21750:	e0bffe45 	stb	r2,-7(fp)
//
//        data = *(pData+1);
//        bPass = I2C_Write_Light(LIGHT_SENSOR_SCL_BASE, LIGHT_SENSOR_SDA_BASE, DEVICE_ADDR,CommandCode , data);
//    }

    return bPass;
   21754:	e0bffe43 	ldbu	r2,-7(fp)
}
   21758:	e037883a 	mov	sp,fp
   2175c:	dfc00117 	ldw	ra,4(sp)
   21760:	df000017 	ldw	fp,0(sp)
   21764:	dec00204 	addi	sp,sp,8
   21768:	f800283a 	ret

0002176c <Light_SetThreshHigh>:

bool Light_SetThreshHigh(alt_u8 *pData)
{
   2176c:	defffc04 	addi	sp,sp,-16
   21770:	dfc00315 	stw	ra,12(sp)
   21774:	df000215 	stw	fp,8(sp)
   21778:	df000204 	addi	fp,sp,8
   2177c:	e13fff15 	stw	r4,-4(fp)
    bool bPass;
    alt_u8 CommandCode = COMMAND_CMD | COMMAND_WORD | THRESHHIGHLOW_REG ;
   21780:	00bfe904 	movi	r2,-92
   21784:	e0bffe05 	stb	r2,-8(fp)

    bPass = I2C_Write_Light16( DEVICE_ADDR, CommandCode, pData);
   21788:	e0bffe03 	ldbu	r2,-8(fp)
   2178c:	e1bfff17 	ldw	r6,-4(fp)
   21790:	100b883a 	mov	r5,r2
   21794:	01001484 	movi	r4,82
   21798:	00219380 	call	21938 <I2C_Write_Light16>
   2179c:	e0bffe45 	stb	r2,-7(fp)
//
//        data = *(pData+1);
//        bPass = I2C_Write_Light(LIGHT_SENSOR_SCL_BASE, LIGHT_SENSOR_SDA_BASE, DEVICE_ADDR,CommandCode , data);
//    }

    return bPass;
   217a0:	e0bffe43 	ldbu	r2,-7(fp)
}
   217a4:	e037883a 	mov	sp,fp
   217a8:	dfc00117 	ldw	ra,4(sp)
   217ac:	df000017 	ldw	fp,0(sp)
   217b0:	dec00204 	addi	sp,sp,8
   217b4:	f800283a 	ret

000217b8 <Light_SetInterrupt>:

bool Light_SetInterrupt(alt_u8 data)
{
   217b8:	defffc04 	addi	sp,sp,-16
   217bc:	dfc00315 	stw	ra,12(sp)
   217c0:	df000215 	stw	fp,8(sp)
   217c4:	df000204 	addi	fp,sp,8
   217c8:	2005883a 	mov	r2,r4
   217cc:	e0bfff05 	stb	r2,-4(fp)
    bool bPass;
    alt_u8 CommandCode = COMMAND_CMD | INTERRUPT_REG ;
   217d0:	00bfe184 	movi	r2,-122
   217d4:	e0bffe05 	stb	r2,-8(fp)

    bPass = I2C_Write_Light(DEVICE_ADDR,CommandCode , data);
   217d8:	e0bffe03 	ldbu	r2,-8(fp)
   217dc:	e0ffff03 	ldbu	r3,-4(fp)
   217e0:	180d883a 	mov	r6,r3
   217e4:	100b883a 	mov	r5,r2
   217e8:	01001484 	movi	r4,82
   217ec:	00218c40 	call	218c4 <I2C_Write_Light>
   217f0:	e0bffe45 	stb	r2,-7(fp)

    return bPass;
   217f4:	e0bffe43 	ldbu	r2,-7(fp)
}
   217f8:	e037883a 	mov	sp,fp
   217fc:	dfc00117 	ldw	ra,4(sp)
   21800:	df000017 	ldw	fp,0(sp)
   21804:	dec00204 	addi	sp,sp,8
   21808:	f800283a 	ret

0002180c <Light_GetInterrupt>:

void Light_GetInterrupt(alt_u8 *data)
{
   2180c:	defffc04 	addi	sp,sp,-16
   21810:	dfc00315 	stw	ra,12(sp)
   21814:	df000215 	stw	fp,8(sp)
   21818:	df000204 	addi	fp,sp,8
   2181c:	e13fff15 	stw	r4,-4(fp)
    bool bPass;
    alt_u8 CommandCode = COMMAND_CMD | INTERRUPT_REG ;
   21820:	00bfe184 	movi	r2,-122
   21824:	e0bffe05 	stb	r2,-8(fp)
    //read ID
    bPass = I2C_Read_Light( DEVICE_ADDR,CommandCode , data);
   21828:	e0bffe03 	ldbu	r2,-8(fp)
   2182c:	e1bfff17 	ldw	r6,-4(fp)
   21830:	100b883a 	mov	r5,r2
   21834:	01001484 	movi	r4,82
   21838:	00219a80 	call	219a8 <I2C_Read_Light>
   2183c:	e0bffe45 	stb	r2,-7(fp)
    if(!bPass)  *data = 0;
   21840:	e0bffe43 	ldbu	r2,-7(fp)
   21844:	1080005c 	xori	r2,r2,1
   21848:	10803fcc 	andi	r2,r2,255
   2184c:	10000226 	beq	r2,zero,21858 <Light_GetInterrupt+0x4c>
   21850:	e0bfff17 	ldw	r2,-4(fp)
   21854:	10000005 	stb	zero,0(r2)
}
   21858:	0001883a 	nop
   2185c:	e037883a 	mov	sp,fp
   21860:	dfc00117 	ldw	ra,4(sp)
   21864:	df000017 	ldw	fp,0(sp)
   21868:	dec00204 	addi	sp,sp,8
   2186c:	f800283a 	ret

00021870 <Light_SetTiming>:

bool Light_SetTiming(alt_u8 data)
{
   21870:	defffc04 	addi	sp,sp,-16
   21874:	dfc00315 	stw	ra,12(sp)
   21878:	df000215 	stw	fp,8(sp)
   2187c:	df000204 	addi	fp,sp,8
   21880:	2005883a 	mov	r2,r4
   21884:	e0bfff05 	stb	r2,-4(fp)
    bool bPass;
    alt_u8 CommandCode = COMMAND_CMD | TIMING_REG ;
   21888:	00bfe044 	movi	r2,-127
   2188c:	e0bffe05 	stb	r2,-8(fp)

    bPass = I2C_Write_Light( DEVICE_ADDR,CommandCode , data);
   21890:	e0bffe03 	ldbu	r2,-8(fp)
   21894:	e0ffff03 	ldbu	r3,-4(fp)
   21898:	180d883a 	mov	r6,r3
   2189c:	100b883a 	mov	r5,r2
   218a0:	01001484 	movi	r4,82
   218a4:	00218c40 	call	218c4 <I2C_Write_Light>
   218a8:	e0bffe45 	stb	r2,-7(fp)

    return bPass;
   218ac:	e0bffe43 	ldbu	r2,-7(fp)
}
   218b0:	e037883a 	mov	sp,fp
   218b4:	dfc00117 	ldw	ra,4(sp)
   218b8:	df000017 	ldw	fp,0(sp)
   218bc:	dec00204 	addi	sp,sp,8
   218c0:	f800283a 	ret

000218c4 <I2C_Write_Light>:

/////////////////////////////////////////////
// internal
////////////////light sensor
bool I2C_Write_Light(alt_8 DeviceAddr, alt_u8 CommandCode, alt_u8 ControlData){
   218c4:	defff904 	addi	sp,sp,-28
   218c8:	dfc00615 	stw	ra,24(sp)
   218cc:	df000515 	stw	fp,20(sp)
   218d0:	df000504 	addi	fp,sp,20
   218d4:	2807883a 	mov	r3,r5
   218d8:	3005883a 	mov	r2,r6
   218dc:	e13ffd05 	stb	r4,-12(fp)
   218e0:	e0fffe05 	stb	r3,-8(fp)
   218e4:	e0bfff05 	stb	r2,-4(fp)
	bool bSuccess;

	bSuccess = OC_I2C_Write(Light_I2C_Controller_Base,DeviceAddr,CommandCode, &ControlData, 1);
   218e8:	d0a00017 	ldw	r2,-32768(gp)
   218ec:	1011883a 	mov	r8,r2
   218f0:	e0bffd03 	ldbu	r2,-12(fp)
   218f4:	10c03fcc 	andi	r3,r2,255
   218f8:	e13ffe03 	ldbu	r4,-8(fp)
   218fc:	e17fff04 	addi	r5,fp,-4
   21900:	00800044 	movi	r2,1
   21904:	d8800015 	stw	r2,0(sp)
   21908:	280f883a 	mov	r7,r5
   2190c:	200d883a 	mov	r6,r4
   21910:	180b883a 	mov	r5,r3
   21914:	4009883a 	mov	r4,r8
   21918:	002066c0 	call	2066c <OC_I2C_Write>
   2191c:	e0bffc05 	stb	r2,-16(fp)

    return bSuccess;
   21920:	e0bffc03 	ldbu	r2,-16(fp)


}
   21924:	e037883a 	mov	sp,fp
   21928:	dfc00117 	ldw	ra,4(sp)
   2192c:	df000017 	ldw	fp,0(sp)
   21930:	dec00204 	addi	sp,sp,8
   21934:	f800283a 	ret

00021938 <I2C_Write_Light16>:

bool I2C_Write_Light16(alt_8 DeviceAddr, alt_u8 CommandCode, alt_u8 *pControlData){
   21938:	defff904 	addi	sp,sp,-28
   2193c:	dfc00615 	stw	ra,24(sp)
   21940:	df000515 	stw	fp,20(sp)
   21944:	df000504 	addi	fp,sp,20
   21948:	2007883a 	mov	r3,r4
   2194c:	2805883a 	mov	r2,r5
   21950:	e1bfff15 	stw	r6,-4(fp)
   21954:	e0fffd05 	stb	r3,-12(fp)
   21958:	e0bffe05 	stb	r2,-8(fp)
	bool bSuccess;

	bSuccess = OC_I2C_Write(Light_I2C_Controller_Base,DeviceAddr,CommandCode, pControlData, 2);
   2195c:	d0a00017 	ldw	r2,-32768(gp)
   21960:	1011883a 	mov	r8,r2
   21964:	e0bffd03 	ldbu	r2,-12(fp)
   21968:	10c03fcc 	andi	r3,r2,255
   2196c:	e13ffe03 	ldbu	r4,-8(fp)
   21970:	00800084 	movi	r2,2
   21974:	d8800015 	stw	r2,0(sp)
   21978:	e1ffff17 	ldw	r7,-4(fp)
   2197c:	200d883a 	mov	r6,r4
   21980:	180b883a 	mov	r5,r3
   21984:	4009883a 	mov	r4,r8
   21988:	002066c0 	call	2066c <OC_I2C_Write>
   2198c:	e0bffc05 	stb	r2,-16(fp)

    return bSuccess;
   21990:	e0bffc03 	ldbu	r2,-16(fp)


}
   21994:	e037883a 	mov	sp,fp
   21998:	dfc00117 	ldw	ra,4(sp)
   2199c:	df000017 	ldw	fp,0(sp)
   219a0:	dec00204 	addi	sp,sp,8
   219a4:	f800283a 	ret

000219a8 <I2C_Read_Light>:

bool I2C_Read_Light(alt_8 DeviceAddr, alt_u8 CommandCode, alt_u8 *pControlData){
   219a8:	defff904 	addi	sp,sp,-28
   219ac:	dfc00615 	stw	ra,24(sp)
   219b0:	df000515 	stw	fp,20(sp)
   219b4:	df000504 	addi	fp,sp,20
   219b8:	2007883a 	mov	r3,r4
   219bc:	2805883a 	mov	r2,r5
   219c0:	e1bfff15 	stw	r6,-4(fp)
   219c4:	e0fffd05 	stb	r3,-12(fp)
   219c8:	e0bffe05 	stb	r2,-8(fp)
    bool bSuccess;

    bSuccess = OC_I2C_Read(Light_I2C_Controller_Base,DeviceAddr,CommandCode, pControlData, 1);
   219cc:	d0a00017 	ldw	r2,-32768(gp)
   219d0:	1011883a 	mov	r8,r2
   219d4:	e0bffd03 	ldbu	r2,-12(fp)
   219d8:	10c03fcc 	andi	r3,r2,255
   219dc:	e13ffe03 	ldbu	r4,-8(fp)
   219e0:	00800044 	movi	r2,1
   219e4:	d8800015 	stw	r2,0(sp)
   219e8:	e1ffff17 	ldw	r7,-4(fp)
   219ec:	200d883a 	mov	r6,r4
   219f0:	180b883a 	mov	r5,r3
   219f4:	4009883a 	mov	r4,r8
   219f8:	002091c0 	call	2091c <OC_I2C_Read>
   219fc:	e0bffc05 	stb	r2,-16(fp)

    return bSuccess;
   21a00:	e0bffc03 	ldbu	r2,-16(fp)
}
   21a04:	e037883a 	mov	sp,fp
   21a08:	dfc00117 	ldw	ra,4(sp)
   21a0c:	df000017 	ldw	fp,0(sp)
   21a10:	dec00204 	addi	sp,sp,8
   21a14:	f800283a 	ret

00021a18 <Sensor_Report>:
#include "light_sensor.h"
#include "rh_temp.h"
#include "mpu9250.h"


void Sensor_Report(void){
   21a18:	deffec04 	addi	sp,sp,-80
   21a1c:	dfc01315 	stw	ra,76(sp)
   21a20:	df001215 	stw	fp,72(sp)
   21a24:	df001204 	addi	fp,sp,72
  	bool bPass;

  	////////////////////////////////
  	// report light sensor
  	alt_u16 light0 = 0, light1 = 0;
   21a28:	e03ff38d 	sth	zero,-50(fp)
   21a2c:	e03ff40d 	sth	zero,-48(fp)
  	bPass = Get_light(&light0, &light1);
   21a30:	e0fff404 	addi	r3,fp,-48
   21a34:	e0bff384 	addi	r2,fp,-50
   21a38:	180b883a 	mov	r5,r3
   21a3c:	1009883a 	mov	r4,r2
   21a40:	002163c0 	call	2163c <Get_light>
   21a44:	e0bff305 	stb	r2,-52(fp)
  	if(bPass){
   21a48:	e0bff303 	ldbu	r2,-52(fp)
   21a4c:	10000a26 	beq	r2,zero,21a78 <Sensor_Report+0x60>
  		printf("light0 = %d, light1 = %d\r\n", light0, light1);
   21a50:	e0bff38b 	ldhu	r2,-50(fp)
   21a54:	10bfffcc 	andi	r2,r2,65535
   21a58:	e0fff40b 	ldhu	r3,-48(fp)
   21a5c:	18ffffcc 	andi	r3,r3,65535
   21a60:	180d883a 	mov	r6,r3
   21a64:	100b883a 	mov	r5,r2
   21a68:	010000f4 	movhi	r4,3
   21a6c:	2110b904 	addi	r4,r4,17124
   21a70:	00271800 	call	27180 <printf>
   21a74:	00000306 	br	21a84 <Sensor_Report+0x6c>
  	}
  	else{
  		printf("get light0 and light1 values failed!\r\n");
   21a78:	010000f4 	movhi	r4,3
   21a7c:	2110c004 	addi	r4,r4,17152
   21a80:	002727c0 	call	2727c <puts>
  	}

  	////////////////////////////////
  	// report HDC1000 temperature & humidity sensor
  	float fTemperature, fHumidity;
  	bPass = RH_Temp_Sensor_Read(&fTemperature, &fHumidity);
   21a84:	e0fff604 	addi	r3,fp,-40
   21a88:	e0bff504 	addi	r2,fp,-44
   21a8c:	180b883a 	mov	r5,r3
   21a90:	1009883a 	mov	r4,r2
   21a94:	00230400 	call	23040 <RH_Temp_Sensor_Read>
   21a98:	e0bff305 	stb	r2,-52(fp)
  	if (bPass){
   21a9c:	e0bff303 	ldbu	r2,-52(fp)
   21aa0:	10001526 	beq	r2,zero,21af8 <Sensor_Report+0xe0>
		printf("Temperature: %.3f*C\r\n", fTemperature);
   21aa4:	e0bff517 	ldw	r2,-44(fp)
   21aa8:	1009883a 	mov	r4,r2
   21aac:	0026e340 	call	26e34 <__extendsfdf2>
   21ab0:	100d883a 	mov	r6,r2
   21ab4:	180f883a 	mov	r7,r3
   21ab8:	300b883a 	mov	r5,r6
   21abc:	380d883a 	mov	r6,r7
   21ac0:	010000f4 	movhi	r4,3
   21ac4:	2110ca04 	addi	r4,r4,17192
   21ac8:	00271800 	call	27180 <printf>
    	printf("Humidity: %.3f%%\r\n",fHumidity);
   21acc:	e0bff617 	ldw	r2,-40(fp)
   21ad0:	1009883a 	mov	r4,r2
   21ad4:	0026e340 	call	26e34 <__extendsfdf2>
   21ad8:	100d883a 	mov	r6,r2
   21adc:	180f883a 	mov	r7,r3
   21ae0:	300b883a 	mov	r5,r6
   21ae4:	380d883a 	mov	r6,r7
   21ae8:	010000f4 	movhi	r4,3
   21aec:	2110d004 	addi	r4,r4,17216
   21af0:	00271800 	call	27180 <printf>
   21af4:	00000306 	br	21b04 <Sensor_Report+0xec>
  	}else{
  		printf("Failed to ready Temperature/Humidity sensor!\r\n");
   21af8:	010000f4 	movhi	r4,3
   21afc:	2110d504 	addi	r4,r4,17236
   21b00:	002727c0 	call	2727c <puts>
  	////////////////////////////////
  	// report mpu9250 9-axis sensor
  	float ax, ay, az;
  	float gx, gy, gz;
  	float mx, my, mz;
  	getMotion9(&ax, &ay, &az, &gx, &gy, &gz, &mx, &my, &mz);
   21b04:	e1bffa04 	addi	r6,fp,-24
   21b08:	e17ff904 	addi	r5,fp,-28
   21b0c:	e13ff804 	addi	r4,fp,-32
   21b10:	e0fff704 	addi	r3,fp,-36
   21b14:	e0bfff04 	addi	r2,fp,-4
   21b18:	d8800415 	stw	r2,16(sp)
   21b1c:	e0bffe04 	addi	r2,fp,-8
   21b20:	d8800315 	stw	r2,12(sp)
   21b24:	e0bffd04 	addi	r2,fp,-12
   21b28:	d8800215 	stw	r2,8(sp)
   21b2c:	e0bffc04 	addi	r2,fp,-16
   21b30:	d8800115 	stw	r2,4(sp)
   21b34:	e0bffb04 	addi	r2,fp,-20
   21b38:	d8800015 	stw	r2,0(sp)
   21b3c:	300f883a 	mov	r7,r6
   21b40:	280d883a 	mov	r6,r5
   21b44:	200b883a 	mov	r5,r4
   21b48:	1809883a 	mov	r4,r3
   21b4c:	0022d180 	call	22d18 <getMotion9>
  	//printf("9-axis info:\r\n");
  	//printf("ax = %.3f, ay = %.3f, az = %.3f\r\n", ax, ay, az);
  	//printf("gx = %.3f, gy = %.3f, gz = %.3f\r\n", gx, gy, gz);
  	//printf("mx = %.3f, my = %.3f, mz = %.3f\r\n", mx, my, mz);

  	printf("\r\n");
   21b50:	010000f4 	movhi	r4,3
   21b54:	2110e104 	addi	r4,r4,17284
   21b58:	002727c0 	call	2727c <puts>
}
   21b5c:	0001883a 	nop
   21b60:	e037883a 	mov	sp,fp
   21b64:	dfc00117 	ldw	ra,4(sp)
   21b68:	df000017 	ldw	fp,0(sp)
   21b6c:	dec00204 	addi	sp,sp,8
   21b70:	f800283a 	ret

00021b74 <main>:

int main()
{
   21b74:	defffd04 	addi	sp,sp,-12
   21b78:	dfc00215 	stw	ra,8(sp)
   21b7c:	df000115 	stw	fp,4(sp)
   21b80:	df000104 	addi	fp,sp,4
	printf("Welcome to DE10_NANO RFS_SENSOR DEMO!\r\n");
   21b84:	010000f4 	movhi	r4,3
   21b88:	2110e204 	addi	r4,r4,17288
   21b8c:	002727c0 	call	2727c <puts>

  	bool bPass = FALSE;
   21b90:	e03fff05 	stb	zero,-4(fp)

  	////////////////////////////////////
  	// init light sensor i2c and power on
  	Light_Init(LIGHT_I2C_OPENCORES_BASE);
   21b94:	01000134 	movhi	r4,4
   21b98:	21040804 	addi	r4,r4,4128
   21b9c:	00212b40 	call	212b4 <Light_Init>
  	bPass = Light_PowerSwitch(TRUE);
   21ba0:	01000044 	movi	r4,1
   21ba4:	00213dc0 	call	213dc <Light_PowerSwitch>
   21ba8:	e0bfff05 	stb	r2,-4(fp)
  	if(bPass)
   21bac:	e0bfff03 	ldbu	r2,-4(fp)
   21bb0:	10000426 	beq	r2,zero,21bc4 <main+0x50>
  		printf("light sensor power up successful!\r\n");
   21bb4:	010000f4 	movhi	r4,3
   21bb8:	2110ec04 	addi	r4,r4,17328
   21bbc:	002727c0 	call	2727c <puts>
   21bc0:	00000306 	br	21bd0 <main+0x5c>
  	else
  		printf("light sensor power up failed!\r\n");
   21bc4:	010000f4 	movhi	r4,3
   21bc8:	2110f504 	addi	r4,r4,17364
   21bcc:	002727c0 	call	2727c <puts>

  	////////////////////////////////////
  	// init HDC1000: temperature and humidity sensor
  	RH_Temp_Init(RH_TEMP_I2C_OPENCORES_BASE);
   21bd0:	01000134 	movhi	r4,4
   21bd4:	21040004 	addi	r4,r4,4096
   21bd8:	0022ec00 	call	22ec0 <RH_Temp_Init>
  	bPass = RH_Temp_Sensor_Init();
   21bdc:	00230040 	call	23004 <RH_Temp_Sensor_Init>
   21be0:	e0bfff05 	stb	r2,-4(fp)
  	if(bPass)
   21be4:	e0bfff03 	ldbu	r2,-4(fp)
   21be8:	10000426 	beq	r2,zero,21bfc <main+0x88>
  		printf("Init HDC1000 successful!\r\n");
   21bec:	010000f4 	movhi	r4,3
   21bf0:	2110fd04 	addi	r4,r4,17396
   21bf4:	002727c0 	call	2727c <puts>
   21bf8:	00000306 	br	21c08 <main+0x94>
  	else
  		printf("Init HDC1000 failed!\r\n");
   21bfc:	010000f4 	movhi	r4,3
   21c00:	21110404 	addi	r4,r4,17424
   21c04:	002727c0 	call	2727c <puts>



  	////////////////////////////////////
  	//init MPU9250 9-axis sensor
  	MPU9250_Init(MPU_I2C_OPENCORES_BASE);
   21c08:	01000134 	movhi	r4,4
   21c0c:	21041004 	addi	r4,r4,4160
   21c10:	0021c380 	call	21c38 <MPU9250_Init>
  	MPU9250_initialize();
   21c14:	00220040 	call	22004 <MPU9250_initialize>
  	printf("\r\n");
   21c18:	010000f4 	movhi	r4,3
   21c1c:	2110e104 	addi	r4,r4,17284
   21c20:	002727c0 	call	2727c <puts>


  	while(1){ // report every second
  		Sensor_Report();
   21c24:	0021a180 	call	21a18 <Sensor_Report>
  		usleep(1000*1000);
   21c28:	010003f4 	movhi	r4,15
   21c2c:	21109004 	addi	r4,r4,16960
   21c30:	00320640 	call	32064 <usleep>

  	}
   21c34:	003ffb06 	br	21c24 <__alt_data_end+0xfffe2824>

00021c38 <MPU9250_Init>:
#include "terasic_includes.h"

#define G_SI 9.80665

void MPU9250_Init(alt_u32 I2C_Controller_Base)
{
   21c38:	defffb04 	addi	sp,sp,-20
   21c3c:	dfc00415 	stw	ra,16(sp)
   21c40:	df000315 	stw	fp,12(sp)
   21c44:	df000304 	addi	fp,sp,12
   21c48:	e13fff15 	stw	r4,-4(fp)
	const int ref_clk = 50*1000*1000; // 50Mhz
   21c4c:	0080bef4 	movhi	r2,763
   21c50:	10bc2004 	addi	r2,r2,-3968
   21c54:	e0bffd15 	stw	r2,-12(fp)
	const int i2c_clk = 400*1000; // 400KHz
   21c58:	008001b4 	movhi	r2,6
   21c5c:	1086a004 	addi	r2,r2,6784
   21c60:	e0bffe15 	stw	r2,-8(fp)
//	MPU9250_I2C_Controller_Base = I2C_Controller_Base;
	oc_i2c_init_ex(I2C_Controller_Base, ref_clk, i2c_clk);
   21c64:	e0bfff17 	ldw	r2,-4(fp)
   21c68:	e1bffe17 	ldw	r6,-8(fp)
   21c6c:	e17ffd17 	ldw	r5,-12(fp)
   21c70:	1009883a 	mov	r4,r2
   21c74:	00203980 	call	20398 <oc_i2c_init_ex>
}
   21c78:	0001883a 	nop
   21c7c:	e037883a 	mov	sp,fp
   21c80:	dfc00117 	ldw	ra,4(sp)
   21c84:	df000017 	ldw	fp,0(sp)
   21c88:	dec00204 	addi	sp,sp,8
   21c8c:	f800283a 	ret

00021c90 <WriteReg>:
                                    REGISTER READ & WRITE
usage: use these methods to read and write MPU9250 registers over SPI
-----------------------------------------------------------------------------------------------*/

unsigned int WriteReg( uint8_t WriteAddr, uint8_t WriteData )
{
   21c90:	defffb04 	addi	sp,sp,-20
   21c94:	dfc00415 	stw	ra,16(sp)
   21c98:	df000315 	stw	fp,12(sp)
   21c9c:	df000304 	addi	fp,sp,12
   21ca0:	2007883a 	mov	r3,r4
   21ca4:	2805883a 	mov	r2,r5
   21ca8:	e0fffe05 	stb	r3,-8(fp)
   21cac:	e0bfff05 	stb	r2,-4(fp)
#if 1
	if (WriteAddr & READ_FLAG)
   21cb0:	e0bffe03 	ldbu	r2,-8(fp)
   21cb4:	10803fcc 	andi	r2,r2,255
   21cb8:	1080201c 	xori	r2,r2,128
   21cbc:	10bfe004 	addi	r2,r2,-128
   21cc0:	1000070e 	bge	r2,zero,21ce0 <WriteReg+0x50>
		return ReadReg(WriteAddr, WriteData);
   21cc4:	e0bffe03 	ldbu	r2,-8(fp)
   21cc8:	e0ffff03 	ldbu	r3,-4(fp)
   21ccc:	18c03fcc 	andi	r3,r3,255
   21cd0:	180b883a 	mov	r5,r3
   21cd4:	1009883a 	mov	r4,r2
   21cd8:	0021d200 	call	21d20 <ReadReg>
   21cdc:	00000b06 	br	21d0c <WriteReg+0x7c>
	OC_I2C_Write(MPU_I2C_OPENCORES_BASE, MPU_DEVICE_ADDR, WriteAddr, &WriteData, sizeof(WriteData));
   21ce0:	e0fffe03 	ldbu	r3,-8(fp)
   21ce4:	e13fff04 	addi	r4,fp,-4
   21ce8:	00800044 	movi	r2,1
   21cec:	d8800015 	stw	r2,0(sp)
   21cf0:	200f883a 	mov	r7,r4
   21cf4:	180d883a 	mov	r6,r3
   21cf8:	01403404 	movi	r5,208
   21cfc:	01000134 	movhi	r4,4
   21d00:	21041004 	addi	r4,r4,4160
   21d04:	002066c0 	call	2066c <OC_I2C_Write>
	return 0x00;
   21d08:	0005883a 	mov	r2,zero

	SPIdev::transfer("/dev/spidev0.1", tx, rx, 2);

    return rx[1];
#endif
}
   21d0c:	e037883a 	mov	sp,fp
   21d10:	dfc00117 	ldw	ra,4(sp)
   21d14:	df000017 	ldw	fp,0(sp)
   21d18:	dec00204 	addi	sp,sp,8
   21d1c:	f800283a 	ret

00021d20 <ReadReg>:

//-----------------------------------------------------------------------------------------------

unsigned int  ReadReg( uint8_t WriteAddr, uint8_t WriteData )
{
   21d20:	defffa04 	addi	sp,sp,-24
   21d24:	dfc00515 	stw	ra,20(sp)
   21d28:	df000415 	stw	fp,16(sp)
   21d2c:	df000404 	addi	fp,sp,16
   21d30:	2007883a 	mov	r3,r4
   21d34:	2805883a 	mov	r2,r5
   21d38:	e0fffe05 	stb	r3,-8(fp)
   21d3c:	e0bfff05 	stb	r2,-4(fp)
#if 1
	unsigned char ReadData;
	OC_I2C_Read(MPU_I2C_OPENCORES_BASE, MPU_DEVICE_ADDR, WriteAddr, &ReadData, sizeof(ReadData));
   21d40:	e0fffe03 	ldbu	r3,-8(fp)
   21d44:	00800044 	movi	r2,1
   21d48:	d8800015 	stw	r2,0(sp)
   21d4c:	e1fffd04 	addi	r7,fp,-12
   21d50:	180d883a 	mov	r6,r3
   21d54:	01403404 	movi	r5,208
   21d58:	01000134 	movhi	r4,4
   21d5c:	21041004 	addi	r4,r4,4160
   21d60:	002091c0 	call	2091c <OC_I2C_Read>
	return ReadData;
   21d64:	e0bffd03 	ldbu	r2,-12(fp)
   21d68:	10803fcc 	andi	r2,r2,255
#else
    return WriteReg(WriteAddr | READ_FLAG, WriteData);
#endif
}
   21d6c:	e037883a 	mov	sp,fp
   21d70:	dfc00117 	ldw	ra,4(sp)
   21d74:	df000017 	ldw	fp,0(sp)
   21d78:	dec00204 	addi	sp,sp,8
   21d7c:	f800283a 	ret

00021d80 <ReadRegs>:

//-----------------------------------------------------------------------------------------------
void ReadRegs( uint8_t ReadAddr, uint8_t *ReadBuf, unsigned int Bytes )
{
   21d80:	defffa04 	addi	sp,sp,-24
   21d84:	dfc00515 	stw	ra,20(sp)
   21d88:	df000415 	stw	fp,16(sp)
   21d8c:	df000404 	addi	fp,sp,16
   21d90:	2005883a 	mov	r2,r4
   21d94:	e17ffe15 	stw	r5,-8(fp)
   21d98:	e1bfff15 	stw	r6,-4(fp)
   21d9c:	e0bffd05 	stb	r2,-12(fp)
#if 1
	OC_I2C_Read(MPU_I2C_OPENCORES_BASE, MPU_DEVICE_ADDR, ReadAddr, ReadBuf, Bytes);
   21da0:	e0fffd03 	ldbu	r3,-12(fp)
   21da4:	e0bfff17 	ldw	r2,-4(fp)
   21da8:	d8800015 	stw	r2,0(sp)
   21dac:	e1fffe17 	ldw	r7,-8(fp)
   21db0:	180d883a 	mov	r6,r3
   21db4:	01403404 	movi	r5,208
   21db8:	01000134 	movhi	r4,4
   21dbc:	21041004 	addi	r4,r4,4160
   21dc0:	002091c0 	call	2091c <OC_I2C_Read>
    for(i=0; i<Bytes; i++)
    	ReadBuf[i] = rx[i + 1];

    usleep(50);
#endif
}
   21dc4:	0001883a 	nop
   21dc8:	e037883a 	mov	sp,fp
   21dcc:	dfc00117 	ldw	ra,4(sp)
   21dd0:	df000017 	ldw	fp,0(sp)
   21dd4:	dec00204 	addi	sp,sp,8
   21dd8:	f800283a 	ret

00021ddc <set_acc_scale>:
BITS_FS_16G
returns the range set (2,4,8 or 16)
-----------------------------------------------------------------------------------------------*/

unsigned int set_acc_scale(int scale)
{
   21ddc:	defffc04 	addi	sp,sp,-16
   21de0:	dfc00315 	stw	ra,12(sp)
   21de4:	df000215 	stw	fp,8(sp)
   21de8:	df000204 	addi	fp,sp,8
   21dec:	e13fff15 	stw	r4,-4(fp)
	unsigned int temp_scale;
//	I2C_Write(MPU_I2C_SCL_BASE, MPU_I2C_SDA_BASE, MPU_DEVICE_ADDR, MPUREG_ACCEL_CONFIG, scale);
    WriteReg(MPUREG_ACCEL_CONFIG, scale);
   21df0:	e0bfff17 	ldw	r2,-4(fp)
   21df4:	10803fcc 	andi	r2,r2,255
   21df8:	100b883a 	mov	r5,r2
   21dfc:	01000704 	movi	r4,28
   21e00:	0021c900 	call	21c90 <WriteReg>

    switch (scale){
   21e04:	e0bfff17 	ldw	r2,-4(fp)
   21e08:	10c00220 	cmpeqi	r3,r2,8
   21e0c:	18000c1e 	bne	r3,zero,21e40 <set_acc_scale+0x64>
   21e10:	10c00248 	cmpgei	r3,r2,9
   21e14:	1800021e 	bne	r3,zero,21e20 <set_acc_scale+0x44>
   21e18:	10000626 	beq	r2,zero,21e34 <set_acc_scale+0x58>
   21e1c:	00001106 	br	21e64 <set_acc_scale+0x88>
   21e20:	10c00420 	cmpeqi	r3,r2,16
   21e24:	1800091e 	bne	r3,zero,21e4c <set_acc_scale+0x70>
   21e28:	10800620 	cmpeqi	r2,r2,24
   21e2c:	10000a1e 	bne	r2,zero,21e58 <set_acc_scale+0x7c>
   21e30:	00000c06 	br	21e64 <set_acc_scale+0x88>
        case BITS_FS_2G:
            acc_divider=16384;
   21e34:	0091a034 	movhi	r2,18048
   21e38:	d0a6cf15 	stw	r2,-25796(gp)
        break;
   21e3c:	00000906 	br	21e64 <set_acc_scale+0x88>
        case BITS_FS_4G:
            acc_divider=8192;
   21e40:	00918034 	movhi	r2,17920
   21e44:	d0a6cf15 	stw	r2,-25796(gp)
        break;
   21e48:	00000606 	br	21e64 <set_acc_scale+0x88>
        case BITS_FS_8G:
            acc_divider=4096;
   21e4c:	00916034 	movhi	r2,17792
   21e50:	d0a6cf15 	stw	r2,-25796(gp)
        break;
   21e54:	00000306 	br	21e64 <set_acc_scale+0x88>
        case BITS_FS_16G:
            acc_divider=2048;
   21e58:	00914034 	movhi	r2,17664
   21e5c:	d0a6cf15 	stw	r2,-25796(gp)
        break;
   21e60:	0001883a 	nop
    }
//    I2C_Read(MPU_I2C_SCL_BASE, MPU_I2C_SDA_BASE, MPU_DEVICE_ADDR, MPUREG_ACCEL_CONFIG, &temp_scale);
	temp_scale=WriteReg(MPUREG_ACCEL_CONFIG|READ_FLAG, 0x00);
   21e64:	000b883a 	mov	r5,zero
   21e68:	01002704 	movi	r4,156
   21e6c:	0021c900 	call	21c90 <WriteReg>
   21e70:	e0bffe15 	stw	r2,-8(fp)

    switch (temp_scale){
   21e74:	e0bffe17 	ldw	r2,-8(fp)
   21e78:	10c00220 	cmpeqi	r3,r2,8
   21e7c:	18000c1e 	bne	r3,zero,21eb0 <set_acc_scale+0xd4>
   21e80:	10c00268 	cmpgeui	r3,r2,9
   21e84:	1800021e 	bne	r3,zero,21e90 <set_acc_scale+0xb4>
   21e88:	10000626 	beq	r2,zero,21ea4 <set_acc_scale+0xc8>
   21e8c:	00001106 	br	21ed4 <set_acc_scale+0xf8>
   21e90:	10c00420 	cmpeqi	r3,r2,16
   21e94:	1800091e 	bne	r3,zero,21ebc <set_acc_scale+0xe0>
   21e98:	10800620 	cmpeqi	r2,r2,24
   21e9c:	10000a1e 	bne	r2,zero,21ec8 <set_acc_scale+0xec>
   21ea0:	00000c06 	br	21ed4 <set_acc_scale+0xf8>
        case BITS_FS_2G:
            temp_scale=2;
   21ea4:	00800084 	movi	r2,2
   21ea8:	e0bffe15 	stw	r2,-8(fp)
        break;
   21eac:	00000906 	br	21ed4 <set_acc_scale+0xf8>
        case BITS_FS_4G:
            temp_scale=4;
   21eb0:	00800104 	movi	r2,4
   21eb4:	e0bffe15 	stw	r2,-8(fp)
        break;
   21eb8:	00000606 	br	21ed4 <set_acc_scale+0xf8>
        case BITS_FS_8G:
            temp_scale=8;
   21ebc:	00800204 	movi	r2,8
   21ec0:	e0bffe15 	stw	r2,-8(fp)
        break;
   21ec4:	00000306 	br	21ed4 <set_acc_scale+0xf8>
        case BITS_FS_16G:
            temp_scale=16;
   21ec8:	00800404 	movi	r2,16
   21ecc:	e0bffe15 	stw	r2,-8(fp)
        break;
   21ed0:	0001883a 	nop
    }
    return temp_scale;
   21ed4:	e0bffe17 	ldw	r2,-8(fp)
}
   21ed8:	e037883a 	mov	sp,fp
   21edc:	dfc00117 	ldw	ra,4(sp)
   21ee0:	df000017 	ldw	fp,0(sp)
   21ee4:	dec00204 	addi	sp,sp,8
   21ee8:	f800283a 	ret

00021eec <set_gyro_scale>:
BITS_FS_2000DPS
returns the range set (250,500,1000 or 2000)
-----------------------------------------------------------------------------------------------*/

unsigned int set_gyro_scale(int scale)
{
   21eec:	defffc04 	addi	sp,sp,-16
   21ef0:	dfc00315 	stw	ra,12(sp)
   21ef4:	df000215 	stw	fp,8(sp)
   21ef8:	df000204 	addi	fp,sp,8
   21efc:	e13fff15 	stw	r4,-4(fp)
    unsigned int temp_scale;
//    I2C_Write(MPU_I2C_SCL_BASE, MPU_I2C_SDA_BASE, MPU_DEVICE_ADDR, MPUREG_GYRO_CONFIG, scale);
    WriteReg(MPUREG_GYRO_CONFIG, scale);
   21f00:	e0bfff17 	ldw	r2,-4(fp)
   21f04:	10803fcc 	andi	r2,r2,255
   21f08:	100b883a 	mov	r5,r2
   21f0c:	010006c4 	movi	r4,27
   21f10:	0021c900 	call	21c90 <WriteReg>
    switch (scale){
   21f14:	e0bfff17 	ldw	r2,-4(fp)
   21f18:	10c00220 	cmpeqi	r3,r2,8
   21f1c:	18000c1e 	bne	r3,zero,21f50 <set_gyro_scale+0x64>
   21f20:	10c00248 	cmpgei	r3,r2,9
   21f24:	1800021e 	bne	r3,zero,21f30 <set_gyro_scale+0x44>
   21f28:	10000626 	beq	r2,zero,21f44 <set_gyro_scale+0x58>
   21f2c:	00001306 	br	21f7c <set_gyro_scale+0x90>
   21f30:	10c00420 	cmpeqi	r3,r2,16
   21f34:	1800091e 	bne	r3,zero,21f5c <set_gyro_scale+0x70>
   21f38:	10800620 	cmpeqi	r2,r2,24
   21f3c:	10000b1e 	bne	r2,zero,21f6c <set_gyro_scale+0x80>
   21f40:	00000e06 	br	21f7c <set_gyro_scale+0x90>
        case BITS_FS_250DPS:
            gyro_divider=131;
   21f44:	0090c0f4 	movhi	r2,17155
   21f48:	d0a6ce15 	stw	r2,-25800(gp)
        break;
   21f4c:	00000b06 	br	21f7c <set_gyro_scale+0x90>
        case BITS_FS_500DPS:
            gyro_divider=65.5;
   21f50:	0090a0f4 	movhi	r2,17027
   21f54:	d0a6ce15 	stw	r2,-25800(gp)
        break;
   21f58:	00000806 	br	21f7c <set_gyro_scale+0x90>
        case BITS_FS_1000DPS:
            gyro_divider=32.8;
   21f5c:	009080f4 	movhi	r2,16899
   21f60:	108cccc4 	addi	r2,r2,13107
   21f64:	d0a6ce15 	stw	r2,-25800(gp)
        break;
   21f68:	00000406 	br	21f7c <set_gyro_scale+0x90>
        case BITS_FS_2000DPS:
            gyro_divider=16.4;
   21f6c:	009060f4 	movhi	r2,16771
   21f70:	108cccc4 	addi	r2,r2,13107
   21f74:	d0a6ce15 	stw	r2,-25800(gp)
        break;
   21f78:	0001883a 	nop
    }
//    I2C_Read(MPU_I2C_SCL_BASE, MPU_I2C_SDA_BASE, MPU_DEVICE_ADDR, MPUREG_GYRO_CONFIG, &temp_scale);
    temp_scale=WriteReg(MPUREG_GYRO_CONFIG|READ_FLAG, 0x00);
   21f7c:	000b883a 	mov	r5,zero
   21f80:	010026c4 	movi	r4,155
   21f84:	0021c900 	call	21c90 <WriteReg>
   21f88:	e0bffe15 	stw	r2,-8(fp)
    switch (temp_scale){
   21f8c:	e0bffe17 	ldw	r2,-8(fp)
   21f90:	10c00220 	cmpeqi	r3,r2,8
   21f94:	18000c1e 	bne	r3,zero,21fc8 <set_gyro_scale+0xdc>
   21f98:	10c00268 	cmpgeui	r3,r2,9
   21f9c:	1800021e 	bne	r3,zero,21fa8 <set_gyro_scale+0xbc>
   21fa0:	10000626 	beq	r2,zero,21fbc <set_gyro_scale+0xd0>
   21fa4:	00001106 	br	21fec <set_gyro_scale+0x100>
   21fa8:	10c00420 	cmpeqi	r3,r2,16
   21fac:	1800091e 	bne	r3,zero,21fd4 <set_gyro_scale+0xe8>
   21fb0:	10800620 	cmpeqi	r2,r2,24
   21fb4:	10000a1e 	bne	r2,zero,21fe0 <set_gyro_scale+0xf4>
   21fb8:	00000c06 	br	21fec <set_gyro_scale+0x100>
        case BITS_FS_250DPS:
            temp_scale=250;
   21fbc:	00803e84 	movi	r2,250
   21fc0:	e0bffe15 	stw	r2,-8(fp)
        break;
   21fc4:	00000906 	br	21fec <set_gyro_scale+0x100>
        case BITS_FS_500DPS:
            temp_scale=500;
   21fc8:	00807d04 	movi	r2,500
   21fcc:	e0bffe15 	stw	r2,-8(fp)
        break;
   21fd0:	00000606 	br	21fec <set_gyro_scale+0x100>
        case BITS_FS_1000DPS:
            temp_scale=1000;
   21fd4:	0080fa04 	movi	r2,1000
   21fd8:	e0bffe15 	stw	r2,-8(fp)
        break;
   21fdc:	00000306 	br	21fec <set_gyro_scale+0x100>
        case BITS_FS_2000DPS:
            temp_scale=2000;
   21fe0:	0081f404 	movi	r2,2000
   21fe4:	e0bffe15 	stw	r2,-8(fp)
        break;
   21fe8:	0001883a 	nop
    }
    return temp_scale;
   21fec:	e0bffe17 	ldw	r2,-8(fp)
}
   21ff0:	e037883a 	mov	sp,fp
   21ff4:	dfc00117 	ldw	ra,4(sp)
   21ff8:	df000017 	ldw	fp,0(sp)
   21ffc:	dec00204 	addi	sp,sp,8
   22000:	f800283a 	ret

00022004 <MPU9250_initialize>:
-----------------------------------------------------------------------------------------------*/

#define MPU_InitRegNum 16

bool MPU9250_initialize()
{
   22004:	defff404 	addi	sp,sp,-48
   22008:	dfc00b15 	stw	ra,44(sp)
   2200c:	df000a15 	stw	fp,40(sp)
   22010:	df000a04 	addi	fp,sp,40
	alt_u8 i = 0;
   22014:	e03ff605 	stb	zero,-40(fp)
	int low_pass_filter = 0x01;
   22018:	00800044 	movi	r2,1
   2201c:	e0bff715 	stw	r2,-36(fp)
	alt_u8 MPU_Init_Data[MPU_InitRegNum][2] =
   22020:	00800044 	movi	r2,1
   22024:	e0bff805 	stb	r2,-32(fp)
   22028:	00801ac4 	movi	r2,107
   2202c:	e0bff845 	stb	r2,-31(fp)
   22030:	e03ff885 	stb	zero,-30(fp)
   22034:	00801b04 	movi	r2,108
   22038:	e0bff8c5 	stb	r2,-29(fp)
   2203c:	e0bff717 	ldw	r2,-36(fp)
   22040:	e0bff905 	stb	r2,-28(fp)
   22044:	00800684 	movi	r2,26
   22048:	e0bff945 	stb	r2,-27(fp)
   2204c:	00800604 	movi	r2,24
   22050:	e0bff985 	stb	r2,-26(fp)
   22054:	008006c4 	movi	r2,27
   22058:	e0bff9c5 	stb	r2,-25(fp)
   2205c:	00800204 	movi	r2,8
   22060:	e0bffa05 	stb	r2,-24(fp)
   22064:	00800704 	movi	r2,28
   22068:	e0bffa45 	stb	r2,-23(fp)
   2206c:	00800244 	movi	r2,9
   22070:	e0bffa85 	stb	r2,-22(fp)
   22074:	00800744 	movi	r2,29
   22078:	e0bffac5 	stb	r2,-21(fp)
   2207c:	00800c04 	movi	r2,48
   22080:	e0bffb05 	stb	r2,-20(fp)
   22084:	00800dc4 	movi	r2,55
   22088:	e0bffb45 	stb	r2,-19(fp)
   2208c:	00800804 	movi	r2,32
   22090:	e0bffb85 	stb	r2,-18(fp)
   22094:	00801a84 	movi	r2,106
   22098:	e0bffbc5 	stb	r2,-17(fp)
   2209c:	00800344 	movi	r2,13
   220a0:	e0bffc05 	stb	r2,-16(fp)
   220a4:	00800904 	movi	r2,36
   220a8:	e0bffc45 	stb	r2,-15(fp)
   220ac:	00800304 	movi	r2,12
   220b0:	e0bffc85 	stb	r2,-14(fp)
   220b4:	00800944 	movi	r2,37
   220b8:	e0bffcc5 	stb	r2,-13(fp)
   220bc:	008002c4 	movi	r2,11
   220c0:	e0bffd05 	stb	r2,-12(fp)
   220c4:	00800984 	movi	r2,38
   220c8:	e0bffd45 	stb	r2,-11(fp)
   220cc:	00800044 	movi	r2,1
   220d0:	e0bffd85 	stb	r2,-10(fp)
   220d4:	008018c4 	movi	r2,99
   220d8:	e0bffdc5 	stb	r2,-9(fp)
   220dc:	00bfe044 	movi	r2,-127
   220e0:	e0bffe05 	stb	r2,-8(fp)
   220e4:	008009c4 	movi	r2,39
   220e8:	e0bffe45 	stb	r2,-7(fp)
   220ec:	00800284 	movi	r2,10
   220f0:	e0bffe85 	stb	r2,-6(fp)
   220f4:	00800984 	movi	r2,38
   220f8:	e0bffec5 	stb	r2,-5(fp)
   220fc:	00800484 	movi	r2,18
   22100:	e0bfff05 	stb	r2,-4(fp)
   22104:	008018c4 	movi	r2,99
   22108:	e0bfff45 	stb	r2,-3(fp)
   2210c:	00bfe044 	movi	r2,-127
   22110:	e0bfff85 	stb	r2,-2(fp)
   22114:	008009c4 	movi	r2,39
   22118:	e0bfffc5 	stb	r2,-1(fp)
	        {AK8963_CNTL1, MPUREG_I2C_SLV0_REG}, //I2C slave 0 register address from where to begin data transfer
	        {0x12, MPUREG_I2C_SLV0_DO}, // Register value to continuous measurement in 16bit
	        {0x81, MPUREG_I2C_SLV0_CTRL}  //Enable I2C and set 1 byte
	};

	for(i = 0; i < MPU_InitRegNum; i++)
   2211c:	e03ff605 	stb	zero,-40(fp)
   22120:	00001706 	br	22180 <MPU9250_initialize+0x17c>
	{
//		I2C_Write(MPU_I2C_SCL_BASE, MPU_I2C_SDA_BASE, MPU_DEVICE_ADDR, MPU_Init_Data[i][1], MPU_Init_Data[i][0]);
		WriteReg(MPU_Init_Data[i][1], MPU_Init_Data[i][0]);
   22124:	e0bff603 	ldbu	r2,-40(fp)
   22128:	1085883a 	add	r2,r2,r2
   2212c:	e0fff604 	addi	r3,fp,-40
   22130:	1885883a 	add	r2,r3,r2
   22134:	10800244 	addi	r2,r2,9
   22138:	10800003 	ldbu	r2,0(r2)
   2213c:	10c03fcc 	andi	r3,r2,255
   22140:	e0bff603 	ldbu	r2,-40(fp)
   22144:	1085883a 	add	r2,r2,r2
   22148:	e13ff604 	addi	r4,fp,-40
   2214c:	2085883a 	add	r2,r4,r2
   22150:	10800204 	addi	r2,r2,8
   22154:	10800003 	ldbu	r2,0(r2)
   22158:	10803fcc 	andi	r2,r2,255
   2215c:	100b883a 	mov	r5,r2
   22160:	1809883a 	mov	r4,r3
   22164:	0021c900 	call	21c90 <WriteReg>
	    usleep(100000);  //I2C must slow down the write speed, otherwise it won't work
   22168:	010000b4 	movhi	r4,2
   2216c:	2121a804 	addi	r4,r4,-31072
   22170:	00320640 	call	32064 <usleep>
	        {AK8963_CNTL1, MPUREG_I2C_SLV0_REG}, //I2C slave 0 register address from where to begin data transfer
	        {0x12, MPUREG_I2C_SLV0_DO}, // Register value to continuous measurement in 16bit
	        {0x81, MPUREG_I2C_SLV0_CTRL}  //Enable I2C and set 1 byte
	};

	for(i = 0; i < MPU_InitRegNum; i++)
   22174:	e0bff603 	ldbu	r2,-40(fp)
   22178:	10800044 	addi	r2,r2,1
   2217c:	e0bff605 	stb	r2,-40(fp)
   22180:	e0bff603 	ldbu	r2,-40(fp)
   22184:	10800430 	cmpltui	r2,r2,16
   22188:	103fe61e 	bne	r2,zero,22124 <__alt_data_end+0xfffe2d24>
//		I2C_Write(MPU_I2C_SCL_BASE, MPU_I2C_SDA_BASE, MPU_DEVICE_ADDR, MPU_Init_Data[i][1], MPU_Init_Data[i][0]);
		WriteReg(MPU_Init_Data[i][1], MPU_Init_Data[i][0]);
	    usleep(100000);  //I2C must slow down the write speed, otherwise it won't work
	}

	set_acc_scale(BITS_FS_16G);
   2218c:	01000604 	movi	r4,24
   22190:	0021ddc0 	call	21ddc <set_acc_scale>
	set_gyro_scale(BITS_FS_2000DPS);
   22194:	01000604 	movi	r4,24
   22198:	0021eec0 	call	21eec <set_gyro_scale>

	calib_mag();
   2219c:	00222b80 	call	222b8 <calib_mag>

	return 0;
   221a0:	0005883a 	mov	r2,zero
}
   221a4:	e037883a 	mov	sp,fp
   221a8:	dfc00117 	ldw	ra,4(sp)
   221ac:	df000017 	ldw	fp,0(sp)
   221b0:	dec00204 	addi	sp,sp,8
   221b4:	f800283a 	ret

000221b8 <calib_acc>:
2 -> Z axis
returns Factory Trim value
-----------------------------------------------------------------------------------------------*/

void calib_acc()
{
   221b8:	defffc04 	addi	sp,sp,-16
   221bc:	dfc00315 	stw	ra,12(sp)
   221c0:	df000215 	stw	fp,8(sp)
   221c4:	df000204 	addi	fp,sp,8
	alt_u8 response[4];
    int temp_scale;
    //READ CURRENT ACC SCALE

//    I2C_Read(MPU_I2C_SCL_BASE, MPU_I2C_SDA_BASE, MPU_DEVICE_ADDR, MPUREG_ACCEL_CONFIG, &temp_scale);
    temp_scale=WriteReg(MPUREG_ACCEL_CONFIG|READ_FLAG, 0x00);
   221c8:	000b883a 	mov	r5,zero
   221cc:	01002704 	movi	r4,156
   221d0:	0021c900 	call	21c90 <WriteReg>
   221d4:	e0bffe15 	stw	r2,-8(fp)
    set_acc_scale(BITS_FS_8G);
   221d8:	01000404 	movi	r4,16
   221dc:	0021ddc0 	call	21ddc <set_acc_scale>
    //ENABLE SELF TEST need modify
    //temp_scale=WriteReg(MPUREG_ACCEL_CONFIG, 0x80>>axis);

//    I2C_MultipleRead(MPU_I2C_SCL_BASE, MPU_I2C_SDA_BASE, MPU_DEVICE_ADDR, MPUREG_SELF_TEST_X, response, 4);
    ReadRegs(MPUREG_SELF_TEST_X,response,4);
   221e0:	e0bfff04 	addi	r2,fp,-4
   221e4:	01800104 	movi	r6,4
   221e8:	100b883a 	mov	r5,r2
   221ec:	01000344 	movi	r4,13
   221f0:	0021d800 	call	21d80 <ReadRegs>
    calib_data[0]=((response[0]&11100000)>>3)|((response[3]&00110000)>>4);
   221f4:	e0bfff03 	ldbu	r2,-4(fp)
   221f8:	10c03fcc 	andi	r3,r2,255
   221fc:	00802a74 	movhi	r2,169
   22200:	1097d804 	addi	r2,r2,24416
   22204:	1884703a 	and	r2,r3,r2
   22208:	1007d0fa 	srai	r3,r2,3
   2220c:	e0bfffc3 	ldbu	r2,-1(fp)
   22210:	10803fcc 	andi	r2,r2,255
   22214:	10a4000c 	andi	r2,r2,36864
   22218:	1005d13a 	srai	r2,r2,4
   2221c:	1886b03a 	or	r3,r3,r2
   22220:	00800134 	movhi	r2,4
   22224:	10a01304 	addi	r2,r2,-32692
   22228:	10c00015 	stw	r3,0(r2)
    calib_data[1]=((response[1]&11100000)>>3)|((response[3]&00001100)>>2);
   2222c:	e0bfff43 	ldbu	r2,-3(fp)
   22230:	10c03fcc 	andi	r3,r2,255
   22234:	00802a74 	movhi	r2,169
   22238:	1097d804 	addi	r2,r2,24416
   2223c:	1884703a 	and	r2,r3,r2
   22240:	1007d0fa 	srai	r3,r2,3
   22244:	e0bfffc3 	ldbu	r2,-1(fp)
   22248:	10803fcc 	andi	r2,r2,255
   2224c:	1080900c 	andi	r2,r2,576
   22250:	1005d0ba 	srai	r2,r2,2
   22254:	1886b03a 	or	r3,r3,r2
   22258:	00800134 	movhi	r2,4
   2225c:	10a01304 	addi	r2,r2,-32692
   22260:	10c00115 	stw	r3,4(r2)
    calib_data[2]=((response[2]&11100000)>>3)|((response[3]&00000011));
   22264:	e0bfff83 	ldbu	r2,-2(fp)
   22268:	10c03fcc 	andi	r3,r2,255
   2226c:	00802a74 	movhi	r2,169
   22270:	1097d804 	addi	r2,r2,24416
   22274:	1884703a 	and	r2,r3,r2
   22278:	1007d0fa 	srai	r3,r2,3
   2227c:	e0bfffc3 	ldbu	r2,-1(fp)
   22280:	10803fcc 	andi	r2,r2,255
   22284:	1080024c 	andi	r2,r2,9
   22288:	1886b03a 	or	r3,r3,r2
   2228c:	00800134 	movhi	r2,4
   22290:	10a01304 	addi	r2,r2,-32692
   22294:	10c00215 	stw	r3,8(r2)

    set_acc_scale(temp_scale);
   22298:	e13ffe17 	ldw	r4,-8(fp)
   2229c:	0021ddc0 	call	21ddc <set_acc_scale>
}
   222a0:	0001883a 	nop
   222a4:	e037883a 	mov	sp,fp
   222a8:	dfc00117 	ldw	ra,4(sp)
   222ac:	df000017 	ldw	fp,0(sp)
   222b0:	dec00204 	addi	sp,sp,8
   222b4:	f800283a 	ret

000222b8 <calib_mag>:

//-----------------------------------------------------------------------------------------------

void calib_mag()
{
   222b8:	defffb04 	addi	sp,sp,-20
   222bc:	dfc00415 	stw	ra,16(sp)
   222c0:	df000315 	stw	fp,12(sp)
   222c4:	df000304 	addi	fp,sp,12
	alt_u8 response[3];
    float data;
    int i;

    WriteReg(MPUREG_I2C_SLV0_ADDR,AK8963_I2C_ADDR|READ_FLAG); //Set the I2C slave addres of AK8963 and set for read.
   222c8:	01402304 	movi	r5,140
   222cc:	01000944 	movi	r4,37
   222d0:	0021c900 	call	21c90 <WriteReg>
    WriteReg(MPUREG_I2C_SLV0_REG, AK8963_ASAX); //I2C slave 0 register address from where to begin data transfer
   222d4:	01400404 	movi	r5,16
   222d8:	01000984 	movi	r4,38
   222dc:	0021c900 	call	21c90 <WriteReg>
    WriteReg(MPUREG_I2C_SLV0_CTRL, 0x83); //Read 3 bytes from the magnetometer
   222e0:	014020c4 	movi	r5,131
   222e4:	010009c4 	movi	r4,39
   222e8:	0021c900 	call	21c90 <WriteReg>
//    I2C_Write(MPU_I2C_SCL_BASE, MPU_I2C_SDA_BASE, MPU_DEVICE_ADDR, MPUREG_I2C_SLV0_REG, AK8963_ASAX);
//    I2C_Write(MPU_I2C_SCL_BASE, MPU_I2C_SDA_BASE, MPU_DEVICE_ADDR, MPUREG_I2C_SLV0_CTRL, 0x83);


    //WriteReg(MPUREG_I2C_SLV0_CTRL, 0x81);    //Enable I2C and set bytes
    usleep(10000);
   222ec:	0109c404 	movi	r4,10000
   222f0:	00320640 	call	32064 <usleep>
    //response[0]=WriteReg(MPUREG_EXT_SENS_DATA_01|READ_FLAG, 0x00);    //Read I2C
//    I2C_MultipleRead(MPU_I2C_SCL_BASE, MPU_I2C_SDA_BASE, MPU_DEVICE_ADDR, MPUREG_EXT_SENS_DATA_00, response, 3);
    ReadRegs(MPUREG_EXT_SENS_DATA_00,response,3);
   222f4:	e0bfff04 	addi	r2,fp,-4
   222f8:	018000c4 	movi	r6,3
   222fc:	100b883a 	mov	r5,r2
   22300:	01001244 	movi	r4,73
   22304:	0021d800 	call	21d80 <ReadRegs>

    //response=WriteReg(MPUREG_I2C_SLV0_DO, 0x00);    //Read I2C
    for(i=0; i<3; i++) {
   22308:	e03ffd15 	stw	zero,-12(fp)
   2230c:	00002806 	br	223b0 <calib_mag+0xf8>
        data=response[i];
   22310:	e0ffff04 	addi	r3,fp,-4
   22314:	e0bffd17 	ldw	r2,-12(fp)
   22318:	1885883a 	add	r2,r3,r2
   2231c:	10800003 	ldbu	r2,0(r2)
   22320:	10803fcc 	andi	r2,r2,255
   22324:	1009883a 	mov	r4,r2
   22328:	0024b9c0 	call	24b9c <__floatunsisf>
   2232c:	1007883a 	mov	r3,r2
   22330:	e0fffe15 	stw	r3,-8(fp)
        magnetometer_ASA[i]=((data-128)/256+1)*Magnetometer_Sensitivity_Scale_Factor;
   22334:	0150c034 	movhi	r5,17152
   22338:	e13ffe17 	ldw	r4,-8(fp)
   2233c:	00245940 	call	24594 <__subsf3>
   22340:	1007883a 	mov	r3,r2
   22344:	1805883a 	mov	r2,r3
   22348:	0150e034 	movhi	r5,17280
   2234c:	1009883a 	mov	r4,r2
   22350:	0023d580 	call	23d58 <__divsf3>
   22354:	1007883a 	mov	r3,r2
   22358:	1805883a 	mov	r2,r3
   2235c:	014fe034 	movhi	r5,16256
   22360:	1009883a 	mov	r4,r2
   22364:	00238900 	call	23890 <__addsf3>
   22368:	1007883a 	mov	r3,r2
   2236c:	1805883a 	mov	r2,r3
   22370:	014f86b4 	movhi	r5,15898
   22374:	29666684 	addi	r5,r5,-26214
   22378:	1009883a 	mov	r4,r2
   2237c:	00241980 	call	24198 <__mulsf3>
   22380:	1007883a 	mov	r3,r2
   22384:	1809883a 	mov	r4,r3
   22388:	00800134 	movhi	r2,4
   2238c:	10a01904 	addi	r2,r2,-32668
   22390:	e0fffd17 	ldw	r3,-12(fp)
   22394:	18c7883a 	add	r3,r3,r3
   22398:	18c7883a 	add	r3,r3,r3
   2239c:	10c5883a 	add	r2,r2,r3
   223a0:	11000015 	stw	r4,0(r2)
    //response[0]=WriteReg(MPUREG_EXT_SENS_DATA_01|READ_FLAG, 0x00);    //Read I2C
//    I2C_MultipleRead(MPU_I2C_SCL_BASE, MPU_I2C_SDA_BASE, MPU_DEVICE_ADDR, MPUREG_EXT_SENS_DATA_00, response, 3);
    ReadRegs(MPUREG_EXT_SENS_DATA_00,response,3);

    //response=WriteReg(MPUREG_I2C_SLV0_DO, 0x00);    //Read I2C
    for(i=0; i<3; i++) {
   223a4:	e0bffd17 	ldw	r2,-12(fp)
   223a8:	10800044 	addi	r2,r2,1
   223ac:	e0bffd15 	stw	r2,-12(fp)
   223b0:	e0bffd17 	ldw	r2,-12(fp)
   223b4:	108000d0 	cmplti	r2,r2,3
   223b8:	103fd51e 	bne	r2,zero,22310 <__alt_data_end+0xfffe2f10>
        data=response[i];
        magnetometer_ASA[i]=((data-128)/256+1)*Magnetometer_Sensitivity_Scale_Factor;
    }
}
   223bc:	0001883a 	nop
   223c0:	e037883a 	mov	sp,fp
   223c4:	dfc00117 	ldw	ra,4(sp)
   223c8:	df000017 	ldw	fp,0(sp)
   223cc:	dec00204 	addi	sp,sp,8
   223d0:	f800283a 	ret

000223d4 <read_acc>:
1 -> Y axis
2 -> Z axis
-----------------------------------------------------------------------------------------------*/

void read_acc()
{
   223d4:	defff704 	addi	sp,sp,-36
   223d8:	dfc00815 	stw	ra,32(sp)
   223dc:	df000715 	stw	fp,28(sp)
   223e0:	dc400615 	stw	r17,24(sp)
   223e4:	dc000515 	stw	r16,20(sp)
   223e8:	df000704 	addi	fp,sp,28
	alt_16 bit_data;
    float data;
    int i;

//    I2C_MultipleRead(MPU_I2C_SCL_BASE, MPU_I2C_SDA_BASE, MPU_DEVICE_ADDR, MPUREG_ACCEL_XOUT_H, response, 6);
    ReadRegs(MPUREG_ACCEL_XOUT_H,response,6);
   223ec:	e0bffc04 	addi	r2,fp,-16
   223f0:	01800184 	movi	r6,6
   223f4:	100b883a 	mov	r5,r2
   223f8:	01000ec4 	movi	r4,59
   223fc:	0021d800 	call	21d80 <ReadRegs>
    for(i=0; i<3; i++) {
   22400:	e03ff915 	stw	zero,-28(fp)
   22404:	00004206 	br	22510 <read_acc+0x13c>
        bit_data = ((alt_16)response[i*2] << 8) | response[i*2+1];
   22408:	e0bff917 	ldw	r2,-28(fp)
   2240c:	1085883a 	add	r2,r2,r2
   22410:	1007883a 	mov	r3,r2
   22414:	e0bffc04 	addi	r2,fp,-16
   22418:	10c5883a 	add	r2,r2,r3
   2241c:	10800003 	ldbu	r2,0(r2)
   22420:	10803fcc 	andi	r2,r2,255
   22424:	1004923a 	slli	r2,r2,8
   22428:	1009883a 	mov	r4,r2
   2242c:	e0bff917 	ldw	r2,-28(fp)
   22430:	1085883a 	add	r2,r2,r2
   22434:	10800044 	addi	r2,r2,1
   22438:	e0fffc04 	addi	r3,fp,-16
   2243c:	1885883a 	add	r2,r3,r2
   22440:	10800003 	ldbu	r2,0(r2)
   22444:	10803fcc 	andi	r2,r2,255
   22448:	2084b03a 	or	r2,r4,r2
   2244c:	e0bffa0d 	sth	r2,-24(fp)
        data = (float)bit_data;
   22450:	e0bffa0f 	ldh	r2,-24(fp)
   22454:	1009883a 	mov	r4,r2
   22458:	0024a780 	call	24a78 <__floatsisf>
   2245c:	1007883a 	mov	r3,r2
   22460:	e0fffb15 	stw	r3,-20(fp)
        accelerometer_data[i] = G_SI * data / acc_divider;
   22464:	e13ffb17 	ldw	r4,-20(fp)
   22468:	0026e340 	call	26e34 <__extendsfdf2>
   2246c:	1011883a 	mov	r8,r2
   22470:	1813883a 	mov	r9,r3
   22474:	018ea4f4 	movhi	r6,14995
   22478:	31a8c144 	addi	r6,r6,-23803
   2247c:	01d00934 	movhi	r7,16420
   22480:	39e74044 	addi	r7,r7,-25343
   22484:	4009883a 	mov	r4,r8
   22488:	480b883a 	mov	r5,r9
   2248c:	0025e200 	call	25e20 <__muldf3>
   22490:	1009883a 	mov	r4,r2
   22494:	180b883a 	mov	r5,r3
   22498:	2021883a 	mov	r16,r4
   2249c:	2823883a 	mov	r17,r5
   224a0:	d0a6cf17 	ldw	r2,-25796(gp)
   224a4:	1009883a 	mov	r4,r2
   224a8:	0026e340 	call	26e34 <__extendsfdf2>
   224ac:	1009883a 	mov	r4,r2
   224b0:	180b883a 	mov	r5,r3
   224b4:	200d883a 	mov	r6,r4
   224b8:	280f883a 	mov	r7,r5
   224bc:	8009883a 	mov	r4,r16
   224c0:	880b883a 	mov	r5,r17
   224c4:	00255380 	call	25538 <__divdf3>
   224c8:	1009883a 	mov	r4,r2
   224cc:	180b883a 	mov	r5,r3
   224d0:	2005883a 	mov	r2,r4
   224d4:	2807883a 	mov	r3,r5
   224d8:	1009883a 	mov	r4,r2
   224dc:	180b883a 	mov	r5,r3
   224e0:	0026f440 	call	26f44 <__truncdfsf2>
   224e4:	1009883a 	mov	r4,r2
   224e8:	00800134 	movhi	r2,4
   224ec:	10a01004 	addi	r2,r2,-32704
   224f0:	e0fff917 	ldw	r3,-28(fp)
   224f4:	18c7883a 	add	r3,r3,r3
   224f8:	18c7883a 	add	r3,r3,r3
   224fc:	10c5883a 	add	r2,r2,r3
   22500:	11000015 	stw	r4,0(r2)
    float data;
    int i;

//    I2C_MultipleRead(MPU_I2C_SCL_BASE, MPU_I2C_SDA_BASE, MPU_DEVICE_ADDR, MPUREG_ACCEL_XOUT_H, response, 6);
    ReadRegs(MPUREG_ACCEL_XOUT_H,response,6);
    for(i=0; i<3; i++) {
   22504:	e0bff917 	ldw	r2,-28(fp)
   22508:	10800044 	addi	r2,r2,1
   2250c:	e0bff915 	stw	r2,-28(fp)
   22510:	e0bff917 	ldw	r2,-28(fp)
   22514:	108000d0 	cmplti	r2,r2,3
   22518:	103fbb1e 	bne	r2,zero,22408 <__alt_data_end+0xfffe3008>
        bit_data = ((alt_16)response[i*2] << 8) | response[i*2+1];
        data = (float)bit_data;
        accelerometer_data[i] = G_SI * data / acc_divider;
    }

}
   2251c:	0001883a 	nop
   22520:	e6fffe04 	addi	sp,fp,-8
   22524:	dfc00317 	ldw	ra,12(sp)
   22528:	df000217 	ldw	fp,8(sp)
   2252c:	dc400117 	ldw	r17,4(sp)
   22530:	dc000017 	ldw	r16,0(sp)
   22534:	dec00404 	addi	sp,sp,16
   22538:	f800283a 	ret

0002253c <read_gyro>:
1 -> Y axis
2 -> Z axis
-----------------------------------------------------------------------------------------------*/

void read_gyro()
{
   2253c:	defff704 	addi	sp,sp,-36
   22540:	dfc00815 	stw	ra,32(sp)
   22544:	df000715 	stw	fp,28(sp)
   22548:	dc400615 	stw	r17,24(sp)
   2254c:	dc000515 	stw	r16,20(sp)
   22550:	df000704 	addi	fp,sp,28
	alt_16 bit_data;
    float data;
    int i;

//    I2C_MultipleRead(MPU_I2C_SCL_BASE, MPU_I2C_SDA_BASE, MPU_DEVICE_ADDR, MPUREG_GYRO_XOUT_H, response, 6);
    ReadRegs(MPUREG_GYRO_XOUT_H,response,6);
   22554:	e0bffc04 	addi	r2,fp,-16
   22558:	01800184 	movi	r6,6
   2255c:	100b883a 	mov	r5,r2
   22560:	010010c4 	movi	r4,67
   22564:	0021d800 	call	21d80 <ReadRegs>
    for(i=0; i<3; i++) {
   22568:	e03ff915 	stw	zero,-28(fp)
   2256c:	00004206 	br	22678 <read_gyro+0x13c>
        bit_data = ((alt_16)response[i*2] << 8) | response[i*2+1];
   22570:	e0bff917 	ldw	r2,-28(fp)
   22574:	1085883a 	add	r2,r2,r2
   22578:	1007883a 	mov	r3,r2
   2257c:	e0bffc04 	addi	r2,fp,-16
   22580:	10c5883a 	add	r2,r2,r3
   22584:	10800003 	ldbu	r2,0(r2)
   22588:	10803fcc 	andi	r2,r2,255
   2258c:	1004923a 	slli	r2,r2,8
   22590:	1009883a 	mov	r4,r2
   22594:	e0bff917 	ldw	r2,-28(fp)
   22598:	1085883a 	add	r2,r2,r2
   2259c:	10800044 	addi	r2,r2,1
   225a0:	e0fffc04 	addi	r3,fp,-16
   225a4:	1885883a 	add	r2,r3,r2
   225a8:	10800003 	ldbu	r2,0(r2)
   225ac:	10803fcc 	andi	r2,r2,255
   225b0:	2084b03a 	or	r2,r4,r2
   225b4:	e0bffa0d 	sth	r2,-24(fp)
        data = (float)bit_data;
   225b8:	e0bffa0f 	ldh	r2,-24(fp)
   225bc:	1009883a 	mov	r4,r2
   225c0:	0024a780 	call	24a78 <__floatsisf>
   225c4:	1007883a 	mov	r3,r2
   225c8:	e0fffb15 	stw	r3,-20(fp)
        gyroscope_data[i] = (M_PI / 180) * data / gyro_divider;
   225cc:	e13ffb17 	ldw	r4,-20(fp)
   225d0:	0026e340 	call	26e34 <__extendsfdf2>
   225d4:	1011883a 	mov	r8,r2
   225d8:	1813883a 	mov	r9,r3
   225dc:	01a894f4 	movhi	r6,41555
   225e0:	31a74e44 	addi	r6,r6,-25287
   225e4:	01cfe4b4 	movhi	r7,16274
   225e8:	39f7d184 	addi	r7,r7,-8378
   225ec:	4009883a 	mov	r4,r8
   225f0:	480b883a 	mov	r5,r9
   225f4:	0025e200 	call	25e20 <__muldf3>
   225f8:	1009883a 	mov	r4,r2
   225fc:	180b883a 	mov	r5,r3
   22600:	2021883a 	mov	r16,r4
   22604:	2823883a 	mov	r17,r5
   22608:	d0a6ce17 	ldw	r2,-25800(gp)
   2260c:	1009883a 	mov	r4,r2
   22610:	0026e340 	call	26e34 <__extendsfdf2>
   22614:	1009883a 	mov	r4,r2
   22618:	180b883a 	mov	r5,r3
   2261c:	200d883a 	mov	r6,r4
   22620:	280f883a 	mov	r7,r5
   22624:	8009883a 	mov	r4,r16
   22628:	880b883a 	mov	r5,r17
   2262c:	00255380 	call	25538 <__divdf3>
   22630:	1009883a 	mov	r4,r2
   22634:	180b883a 	mov	r5,r3
   22638:	2005883a 	mov	r2,r4
   2263c:	2807883a 	mov	r3,r5
   22640:	1009883a 	mov	r4,r2
   22644:	180b883a 	mov	r5,r3
   22648:	0026f440 	call	26f44 <__truncdfsf2>
   2264c:	1009883a 	mov	r4,r2
   22650:	00800134 	movhi	r2,4
   22654:	10a01604 	addi	r2,r2,-32680
   22658:	e0fff917 	ldw	r3,-28(fp)
   2265c:	18c7883a 	add	r3,r3,r3
   22660:	18c7883a 	add	r3,r3,r3
   22664:	10c5883a 	add	r2,r2,r3
   22668:	11000015 	stw	r4,0(r2)
    float data;
    int i;

//    I2C_MultipleRead(MPU_I2C_SCL_BASE, MPU_I2C_SDA_BASE, MPU_DEVICE_ADDR, MPUREG_GYRO_XOUT_H, response, 6);
    ReadRegs(MPUREG_GYRO_XOUT_H,response,6);
    for(i=0; i<3; i++) {
   2266c:	e0bff917 	ldw	r2,-28(fp)
   22670:	10800044 	addi	r2,r2,1
   22674:	e0bff915 	stw	r2,-28(fp)
   22678:	e0bff917 	ldw	r2,-28(fp)
   2267c:	108000d0 	cmplti	r2,r2,3
   22680:	103fbb1e 	bne	r2,zero,22570 <__alt_data_end+0xfffe3170>
        bit_data = ((alt_16)response[i*2] << 8) | response[i*2+1];
        data = (float)bit_data;
        gyroscope_data[i] = (M_PI / 180) * data / gyro_divider;
    }

}
   22684:	0001883a 	nop
   22688:	e6fffe04 	addi	sp,fp,-8
   2268c:	dfc00317 	ldw	ra,12(sp)
   22690:	df000217 	ldw	fp,8(sp)
   22694:	dc400117 	ldw	r17,4(sp)
   22698:	dc000017 	ldw	r16,0(sp)
   2269c:	dec00404 	addi	sp,sp,16
   226a0:	f800283a 	ret

000226a4 <read_temp>:
usage: call this function to read temperature data.
returns the value in C
-----------------------------------------------------------------------------------------------*/

void read_temp()
{
   226a4:	defffb04 	addi	sp,sp,-20
   226a8:	dfc00415 	stw	ra,16(sp)
   226ac:	df000315 	stw	fp,12(sp)
   226b0:	df000304 	addi	fp,sp,12
	alt_u8 response[2];
	alt_16 bit_data;
    float data;

//    I2C_MultipleRead(MPU_I2C_SCL_BASE, MPU_I2C_SDA_BASE, MPU_DEVICE_ADDR, MPUREG_TEMP_OUT_H, response, 2);
    ReadRegs(MPUREG_TEMP_OUT_H,response,2);
   226b4:	e0bfff04 	addi	r2,fp,-4
   226b8:	01800084 	movi	r6,2
   226bc:	100b883a 	mov	r5,r2
   226c0:	01001044 	movi	r4,65
   226c4:	0021d800 	call	21d80 <ReadRegs>

    bit_data=((alt_16)response[0]<<8)|response[1];
   226c8:	e0bfff03 	ldbu	r2,-4(fp)
   226cc:	10803fcc 	andi	r2,r2,255
   226d0:	1004923a 	slli	r2,r2,8
   226d4:	1007883a 	mov	r3,r2
   226d8:	e0bfff43 	ldbu	r2,-3(fp)
   226dc:	10803fcc 	andi	r2,r2,255
   226e0:	1884b03a 	or	r2,r3,r2
   226e4:	e0bffd0d 	sth	r2,-12(fp)
    data=(float)bit_data;
   226e8:	e0bffd0f 	ldh	r2,-12(fp)
   226ec:	1009883a 	mov	r4,r2
   226f0:	0024a780 	call	24a78 <__floatsisf>
   226f4:	1007883a 	mov	r3,r2
   226f8:	e0fffe15 	stw	r3,-8(fp)
    temperature=(data/340)+36.53;
   226fc:	0150eab4 	movhi	r5,17322
   22700:	e13ffe17 	ldw	r4,-8(fp)
   22704:	0023d580 	call	23d58 <__divsf3>
   22708:	1007883a 	mov	r3,r2
   2270c:	1805883a 	mov	r2,r3
   22710:	1009883a 	mov	r4,r2
   22714:	0026e340 	call	26e34 <__extendsfdf2>
   22718:	1011883a 	mov	r8,r2
   2271c:	1813883a 	mov	r9,r3
   22720:	01828f74 	movhi	r6,2621
   22724:	319c2904 	addi	r6,r6,28836
   22728:	01d010b4 	movhi	r7,16450
   2272c:	39d0f5c4 	addi	r7,r7,17367
   22730:	4009883a 	mov	r4,r8
   22734:	480b883a 	mov	r5,r9
   22738:	0024c8c0 	call	24c8c <__adddf3>
   2273c:	1009883a 	mov	r4,r2
   22740:	180b883a 	mov	r5,r3
   22744:	2005883a 	mov	r2,r4
   22748:	2807883a 	mov	r3,r5
   2274c:	1009883a 	mov	r4,r2
   22750:	180b883a 	mov	r5,r3
   22754:	0026f440 	call	26f44 <__truncdfsf2>
   22758:	1007883a 	mov	r3,r2
   2275c:	d0e6cd15 	stw	r3,-25804(gp)
}
   22760:	0001883a 	nop
   22764:	e037883a 	mov	sp,fp
   22768:	dfc00117 	ldw	ra,4(sp)
   2276c:	df000017 	ldw	fp,0(sp)
   22770:	dec00204 	addi	sp,sp,8
   22774:	f800283a 	ret

00022778 <read_mag>:

//-----------------------------------------------------------------------------------------------

void read_mag()
{
   22778:	defff904 	addi	sp,sp,-28
   2277c:	dfc00615 	stw	ra,24(sp)
   22780:	df000515 	stw	fp,20(sp)
   22784:	df000504 	addi	fp,sp,20
	alt_u8 response[7];
	alt_16 bit_data;
    float data;
    int i;

    WriteReg(MPUREG_I2C_SLV0_ADDR,AK8963_I2C_ADDR|READ_FLAG); //Set the I2C slave addres of AK8963 and set for read.
   22788:	01402304 	movi	r5,140
   2278c:	01000944 	movi	r4,37
   22790:	0021c900 	call	21c90 <WriteReg>
    WriteReg(MPUREG_I2C_SLV0_REG, AK8963_HXL); //I2C slave 0 register address from where to begin data transfer
   22794:	014000c4 	movi	r5,3
   22798:	01000984 	movi	r4,38
   2279c:	0021c900 	call	21c90 <WriteReg>
    WriteReg(MPUREG_I2C_SLV0_CTRL, 0x87); //Read 6 bytes from the magnetometer
   227a0:	014021c4 	movi	r5,135
   227a4:	010009c4 	movi	r4,39
   227a8:	0021c900 	call	21c90 <WriteReg>
//    I2C_Write(MPU_I2C_SCL_BASE, MPU_I2C_SDA_BASE, MPU_DEVICE_ADDR, MPUREG_I2C_SLV0_ADDR, AK8963_I2C_ADDR|READ_FLAG);
//    I2C_Write(MPU_I2C_SCL_BASE, MPU_I2C_SDA_BASE, MPU_DEVICE_ADDR, MPUREG_I2C_SLV0_REG, AK8963_HXL);
//    I2C_Write(MPU_I2C_SCL_BASE, MPU_I2C_SDA_BASE, MPU_DEVICE_ADDR, MPUREG_I2C_SLV0_CTRL, 0x87);

    usleep(10000);
   227ac:	0109c404 	movi	r4,10000
   227b0:	00320640 	call	32064 <usleep>
//    I2C_MultipleRead(MPU_I2C_SCL_BASE, MPU_I2C_SDA_BASE, MPU_DEVICE_ADDR, MPUREG_EXT_SENS_DATA_00, response, 7);
    ReadRegs(MPUREG_EXT_SENS_DATA_00,response,7);
   227b4:	e0bffe04 	addi	r2,fp,-8
   227b8:	018001c4 	movi	r6,7
   227bc:	100b883a 	mov	r5,r2
   227c0:	01001244 	movi	r4,73
   227c4:	0021d800 	call	21d80 <ReadRegs>
    //must start your read from AK8963A register 0x03 and read seven bytes so that upon read of ST2 register 0x09 the AK8963A will unlatch the data registers for the next measurement.
    for(i=0; i<3; i++) {
   227c8:	e03ffb15 	stw	zero,-20(fp)
   227cc:	00002d06 	br	22884 <read_mag+0x10c>
        bit_data=((alt_16)response[i*2+1]<<8)|response[i*2];
   227d0:	e0bffb17 	ldw	r2,-20(fp)
   227d4:	1085883a 	add	r2,r2,r2
   227d8:	10800044 	addi	r2,r2,1
   227dc:	e0fffe04 	addi	r3,fp,-8
   227e0:	1885883a 	add	r2,r3,r2
   227e4:	10800003 	ldbu	r2,0(r2)
   227e8:	10803fcc 	andi	r2,r2,255
   227ec:	1004923a 	slli	r2,r2,8
   227f0:	1007883a 	mov	r3,r2
   227f4:	e0bffb17 	ldw	r2,-20(fp)
   227f8:	1085883a 	add	r2,r2,r2
   227fc:	1009883a 	mov	r4,r2
   22800:	e0bffe04 	addi	r2,fp,-8
   22804:	1105883a 	add	r2,r2,r4
   22808:	10800003 	ldbu	r2,0(r2)
   2280c:	10803fcc 	andi	r2,r2,255
   22810:	1884b03a 	or	r2,r3,r2
   22814:	e0bffc0d 	sth	r2,-16(fp)
        data=(float)bit_data;
   22818:	e0bffc0f 	ldh	r2,-16(fp)
   2281c:	1009883a 	mov	r4,r2
   22820:	0024a780 	call	24a78 <__floatsisf>
   22824:	1007883a 	mov	r3,r2
   22828:	e0fffd15 	stw	r3,-12(fp)
        magnetometer_data[i]=data*magnetometer_ASA[i];
   2282c:	00800134 	movhi	r2,4
   22830:	10a01904 	addi	r2,r2,-32668
   22834:	e0fffb17 	ldw	r3,-20(fp)
   22838:	18c7883a 	add	r3,r3,r3
   2283c:	18c7883a 	add	r3,r3,r3
   22840:	10c5883a 	add	r2,r2,r3
   22844:	10c00017 	ldw	r3,0(r2)
   22848:	e17ffd17 	ldw	r5,-12(fp)
   2284c:	1809883a 	mov	r4,r3
   22850:	00241980 	call	24198 <__mulsf3>
   22854:	1007883a 	mov	r3,r2
   22858:	1809883a 	mov	r4,r3
   2285c:	00800134 	movhi	r2,4
   22860:	10a01c04 	addi	r2,r2,-32656
   22864:	e0fffb17 	ldw	r3,-20(fp)
   22868:	18c7883a 	add	r3,r3,r3
   2286c:	18c7883a 	add	r3,r3,r3
   22870:	10c5883a 	add	r2,r2,r3
   22874:	11000015 	stw	r4,0(r2)

    usleep(10000);
//    I2C_MultipleRead(MPU_I2C_SCL_BASE, MPU_I2C_SDA_BASE, MPU_DEVICE_ADDR, MPUREG_EXT_SENS_DATA_00, response, 7);
    ReadRegs(MPUREG_EXT_SENS_DATA_00,response,7);
    //must start your read from AK8963A register 0x03 and read seven bytes so that upon read of ST2 register 0x09 the AK8963A will unlatch the data registers for the next measurement.
    for(i=0; i<3; i++) {
   22878:	e0bffb17 	ldw	r2,-20(fp)
   2287c:	10800044 	addi	r2,r2,1
   22880:	e0bffb15 	stw	r2,-20(fp)
   22884:	e0bffb17 	ldw	r2,-20(fp)
   22888:	108000d0 	cmplti	r2,r2,3
   2288c:	103fd01e 	bne	r2,zero,227d0 <__alt_data_end+0xfffe33d0>
        bit_data=((alt_16)response[i*2+1]<<8)|response[i*2];
        data=(float)bit_data;
        magnetometer_data[i]=data*magnetometer_ASA[i];
    }
}
   22890:	0001883a 	nop
   22894:	e037883a 	mov	sp,fp
   22898:	dfc00117 	ldw	ra,4(sp)
   2289c:	df000017 	ldw	fp,0(sp)
   228a0:	dec00204 	addi	sp,sp,8
   228a4:	f800283a 	ret

000228a8 <read_all>:

//-----------------------------------------------------------------------------------------------

void read_all()
{
   228a8:	defff204 	addi	sp,sp,-56
   228ac:	dfc00d15 	stw	ra,52(sp)
   228b0:	df000c15 	stw	fp,48(sp)
   228b4:	dc800b15 	stw	r18,44(sp)
   228b8:	dc400a15 	stw	r17,40(sp)
   228bc:	dc000915 	stw	r16,36(sp)
   228c0:	df000c04 	addi	fp,sp,48
	alt_16 bit_data;
    float data;
    int i;

    //Send I2C command at first
    WriteReg(MPUREG_I2C_SLV0_ADDR,AK8963_I2C_ADDR|READ_FLAG); //Set the I2C slave addres of AK8963 and set for read.
   228c4:	01402304 	movi	r5,140
   228c8:	01000944 	movi	r4,37
   228cc:	0021c900 	call	21c90 <WriteReg>
    WriteReg(MPUREG_I2C_SLV0_REG, AK8963_HXL); //I2C slave 0 register address from where to begin data transfer
   228d0:	014000c4 	movi	r5,3
   228d4:	01000984 	movi	r4,38
   228d8:	0021c900 	call	21c90 <WriteReg>
    WriteReg(MPUREG_I2C_SLV0_CTRL, 0x87); //Read 7 bytes from the magnetometer
   228dc:	014021c4 	movi	r5,135
   228e0:	010009c4 	movi	r4,39
   228e4:	0021c900 	call	21c90 <WriteReg>
//    I2C_Write(MPU_I2C_SCL_BASE, MPU_I2C_SDA_BASE, MPU_DEVICE_ADDR, MPUREG_I2C_SLV0_CTRL, 0x87);


    //wait(0.001);
//    I2C_MultipleRead(MPU_I2C_SCL_BASE, MPU_I2C_SDA_BASE, MPU_DEVICE_ADDR, MPUREG_ACCEL_XOUT_H, response, 21);
    ReadRegs(MPUREG_ACCEL_XOUT_H,response,21);
   228e8:	e0bff704 	addi	r2,fp,-36
   228ec:	01800544 	movi	r6,21
   228f0:	100b883a 	mov	r5,r2
   228f4:	01000ec4 	movi	r4,59
   228f8:	0021d800 	call	21d80 <ReadRegs>
    //Get accelerometer value
    for(i=0; i<3; i++) {
   228fc:	e03ff415 	stw	zero,-48(fp)
   22900:	00004206 	br	22a0c <read_all+0x164>
        bit_data = ((alt_16)response[i*2] << 8)|response[i*2+1];
   22904:	e0bff417 	ldw	r2,-48(fp)
   22908:	1085883a 	add	r2,r2,r2
   2290c:	1007883a 	mov	r3,r2
   22910:	e0bff704 	addi	r2,fp,-36
   22914:	10c5883a 	add	r2,r2,r3
   22918:	10800003 	ldbu	r2,0(r2)
   2291c:	10803fcc 	andi	r2,r2,255
   22920:	1004923a 	slli	r2,r2,8
   22924:	1009883a 	mov	r4,r2
   22928:	e0bff417 	ldw	r2,-48(fp)
   2292c:	1085883a 	add	r2,r2,r2
   22930:	10800044 	addi	r2,r2,1
   22934:	e0fff704 	addi	r3,fp,-36
   22938:	1885883a 	add	r2,r3,r2
   2293c:	10800003 	ldbu	r2,0(r2)
   22940:	10803fcc 	andi	r2,r2,255
   22944:	2084b03a 	or	r2,r4,r2
   22948:	e0bff50d 	sth	r2,-44(fp)
        data = (float)bit_data;
   2294c:	e0bff50f 	ldh	r2,-44(fp)
   22950:	1009883a 	mov	r4,r2
   22954:	0024a780 	call	24a78 <__floatsisf>
   22958:	1007883a 	mov	r3,r2
   2295c:	e0fff615 	stw	r3,-40(fp)
        accelerometer_data[i] = G_SI * data / acc_divider;
   22960:	e13ff617 	ldw	r4,-40(fp)
   22964:	0026e340 	call	26e34 <__extendsfdf2>
   22968:	1011883a 	mov	r8,r2
   2296c:	1813883a 	mov	r9,r3
   22970:	018ea4f4 	movhi	r6,14995
   22974:	31a8c144 	addi	r6,r6,-23803
   22978:	01d00934 	movhi	r7,16420
   2297c:	39e74044 	addi	r7,r7,-25343
   22980:	4009883a 	mov	r4,r8
   22984:	480b883a 	mov	r5,r9
   22988:	0025e200 	call	25e20 <__muldf3>
   2298c:	1009883a 	mov	r4,r2
   22990:	180b883a 	mov	r5,r3
   22994:	2021883a 	mov	r16,r4
   22998:	2823883a 	mov	r17,r5
   2299c:	d0a6cf17 	ldw	r2,-25796(gp)
   229a0:	1009883a 	mov	r4,r2
   229a4:	0026e340 	call	26e34 <__extendsfdf2>
   229a8:	1009883a 	mov	r4,r2
   229ac:	180b883a 	mov	r5,r3
   229b0:	200d883a 	mov	r6,r4
   229b4:	280f883a 	mov	r7,r5
   229b8:	8009883a 	mov	r4,r16
   229bc:	880b883a 	mov	r5,r17
   229c0:	00255380 	call	25538 <__divdf3>
   229c4:	1009883a 	mov	r4,r2
   229c8:	180b883a 	mov	r5,r3
   229cc:	2005883a 	mov	r2,r4
   229d0:	2807883a 	mov	r3,r5
   229d4:	1009883a 	mov	r4,r2
   229d8:	180b883a 	mov	r5,r3
   229dc:	0026f440 	call	26f44 <__truncdfsf2>
   229e0:	1009883a 	mov	r4,r2
   229e4:	00800134 	movhi	r2,4
   229e8:	10a01004 	addi	r2,r2,-32704
   229ec:	e0fff417 	ldw	r3,-48(fp)
   229f0:	18c7883a 	add	r3,r3,r3
   229f4:	18c7883a 	add	r3,r3,r3
   229f8:	10c5883a 	add	r2,r2,r3
   229fc:	11000015 	stw	r4,0(r2)

    //wait(0.001);
//    I2C_MultipleRead(MPU_I2C_SCL_BASE, MPU_I2C_SDA_BASE, MPU_DEVICE_ADDR, MPUREG_ACCEL_XOUT_H, response, 21);
    ReadRegs(MPUREG_ACCEL_XOUT_H,response,21);
    //Get accelerometer value
    for(i=0; i<3; i++) {
   22a00:	e0bff417 	ldw	r2,-48(fp)
   22a04:	10800044 	addi	r2,r2,1
   22a08:	e0bff415 	stw	r2,-48(fp)
   22a0c:	e0bff417 	ldw	r2,-48(fp)
   22a10:	108000d0 	cmplti	r2,r2,3
   22a14:	103fbb1e 	bne	r2,zero,22904 <__alt_data_end+0xfffe3504>
        bit_data = ((alt_16)response[i*2] << 8)|response[i*2+1];
        data = (float)bit_data;
        accelerometer_data[i] = G_SI * data / acc_divider;
    }
    //Get temperature
    bit_data = ((alt_16)response[i*2] << 8) | response[i*2+1];
   22a18:	e0bff417 	ldw	r2,-48(fp)
   22a1c:	1085883a 	add	r2,r2,r2
   22a20:	1007883a 	mov	r3,r2
   22a24:	e0bff704 	addi	r2,fp,-36
   22a28:	10c5883a 	add	r2,r2,r3
   22a2c:	10800003 	ldbu	r2,0(r2)
   22a30:	10803fcc 	andi	r2,r2,255
   22a34:	1004923a 	slli	r2,r2,8
   22a38:	1009883a 	mov	r4,r2
   22a3c:	e0bff417 	ldw	r2,-48(fp)
   22a40:	1085883a 	add	r2,r2,r2
   22a44:	10800044 	addi	r2,r2,1
   22a48:	e0fff704 	addi	r3,fp,-36
   22a4c:	1885883a 	add	r2,r3,r2
   22a50:	10800003 	ldbu	r2,0(r2)
   22a54:	10803fcc 	andi	r2,r2,255
   22a58:	2084b03a 	or	r2,r4,r2
   22a5c:	e0bff50d 	sth	r2,-44(fp)
    data = (float)bit_data;
   22a60:	e0bff50f 	ldh	r2,-44(fp)
   22a64:	1009883a 	mov	r4,r2
   22a68:	0024a780 	call	24a78 <__floatsisf>
   22a6c:	1007883a 	mov	r3,r2
   22a70:	e0fff615 	stw	r3,-40(fp)
    temperature = ((data - 21) / 333.87) + 21;
   22a74:	01506a34 	movhi	r5,16808
   22a78:	e13ff617 	ldw	r4,-40(fp)
   22a7c:	00245940 	call	24594 <__subsf3>
   22a80:	1007883a 	mov	r3,r2
   22a84:	1805883a 	mov	r2,r3
   22a88:	1009883a 	mov	r4,r2
   22a8c:	0026e340 	call	26e34 <__extendsfdf2>
   22a90:	1011883a 	mov	r8,r2
   22a94:	1813883a 	mov	r9,r3
   22a98:	01a147f4 	movhi	r6,34079
   22a9c:	31ae1484 	addi	r6,r6,-18350
   22aa0:	01d01d74 	movhi	r7,16501
   22aa4:	39f77ac4 	addi	r7,r7,-8725
   22aa8:	4009883a 	mov	r4,r8
   22aac:	480b883a 	mov	r5,r9
   22ab0:	00255380 	call	25538 <__divdf3>
   22ab4:	1009883a 	mov	r4,r2
   22ab8:	180b883a 	mov	r5,r3
   22abc:	2005883a 	mov	r2,r4
   22ac0:	2807883a 	mov	r3,r5
   22ac4:	000d883a 	mov	r6,zero
   22ac8:	01d00d74 	movhi	r7,16437
   22acc:	1009883a 	mov	r4,r2
   22ad0:	180b883a 	mov	r5,r3
   22ad4:	0024c8c0 	call	24c8c <__adddf3>
   22ad8:	1009883a 	mov	r4,r2
   22adc:	180b883a 	mov	r5,r3
   22ae0:	2005883a 	mov	r2,r4
   22ae4:	2807883a 	mov	r3,r5
   22ae8:	1009883a 	mov	r4,r2
   22aec:	180b883a 	mov	r5,r3
   22af0:	0026f440 	call	26f44 <__truncdfsf2>
   22af4:	1007883a 	mov	r3,r2
   22af8:	d0e6cd15 	stw	r3,-25804(gp)
    //Get gyroscope value
    for(i=4; i<7; i++) {
   22afc:	00800104 	movi	r2,4
   22b00:	e0bff415 	stw	r2,-48(fp)
   22b04:	00004306 	br	22c14 <read_all+0x36c>
        bit_data = ((alt_16)response[i*2] << 8) | response[i*2+1];
   22b08:	e0bff417 	ldw	r2,-48(fp)
   22b0c:	1085883a 	add	r2,r2,r2
   22b10:	1007883a 	mov	r3,r2
   22b14:	e0bff704 	addi	r2,fp,-36
   22b18:	10c5883a 	add	r2,r2,r3
   22b1c:	10800003 	ldbu	r2,0(r2)
   22b20:	10803fcc 	andi	r2,r2,255
   22b24:	1004923a 	slli	r2,r2,8
   22b28:	1009883a 	mov	r4,r2
   22b2c:	e0bff417 	ldw	r2,-48(fp)
   22b30:	1085883a 	add	r2,r2,r2
   22b34:	10800044 	addi	r2,r2,1
   22b38:	e0fff704 	addi	r3,fp,-36
   22b3c:	1885883a 	add	r2,r3,r2
   22b40:	10800003 	ldbu	r2,0(r2)
   22b44:	10803fcc 	andi	r2,r2,255
   22b48:	2084b03a 	or	r2,r4,r2
   22b4c:	e0bff50d 	sth	r2,-44(fp)
        data = (float)bit_data;
   22b50:	e0bff50f 	ldh	r2,-44(fp)
   22b54:	1009883a 	mov	r4,r2
   22b58:	0024a780 	call	24a78 <__floatsisf>
   22b5c:	1007883a 	mov	r3,r2
   22b60:	e0fff615 	stw	r3,-40(fp)
        gyroscope_data[i-4] = (M_PI / 180) * data / gyro_divider;
   22b64:	e0bff417 	ldw	r2,-48(fp)
   22b68:	143fff04 	addi	r16,r2,-4
   22b6c:	e13ff617 	ldw	r4,-40(fp)
   22b70:	0026e340 	call	26e34 <__extendsfdf2>
   22b74:	1011883a 	mov	r8,r2
   22b78:	1813883a 	mov	r9,r3
   22b7c:	01a894f4 	movhi	r6,41555
   22b80:	31a74e44 	addi	r6,r6,-25287
   22b84:	01cfe4b4 	movhi	r7,16274
   22b88:	39f7d184 	addi	r7,r7,-8378
   22b8c:	4009883a 	mov	r4,r8
   22b90:	480b883a 	mov	r5,r9
   22b94:	0025e200 	call	25e20 <__muldf3>
   22b98:	1009883a 	mov	r4,r2
   22b9c:	180b883a 	mov	r5,r3
   22ba0:	2023883a 	mov	r17,r4
   22ba4:	2825883a 	mov	r18,r5
   22ba8:	d0a6ce17 	ldw	r2,-25800(gp)
   22bac:	1009883a 	mov	r4,r2
   22bb0:	0026e340 	call	26e34 <__extendsfdf2>
   22bb4:	1009883a 	mov	r4,r2
   22bb8:	180b883a 	mov	r5,r3
   22bbc:	200d883a 	mov	r6,r4
   22bc0:	280f883a 	mov	r7,r5
   22bc4:	8809883a 	mov	r4,r17
   22bc8:	900b883a 	mov	r5,r18
   22bcc:	00255380 	call	25538 <__divdf3>
   22bd0:	1009883a 	mov	r4,r2
   22bd4:	180b883a 	mov	r5,r3
   22bd8:	2005883a 	mov	r2,r4
   22bdc:	2807883a 	mov	r3,r5
   22be0:	1009883a 	mov	r4,r2
   22be4:	180b883a 	mov	r5,r3
   22be8:	0026f440 	call	26f44 <__truncdfsf2>
   22bec:	1009883a 	mov	r4,r2
   22bf0:	00800134 	movhi	r2,4
   22bf4:	10a01604 	addi	r2,r2,-32680
   22bf8:	8407883a 	add	r3,r16,r16
   22bfc:	18c7883a 	add	r3,r3,r3
   22c00:	10c5883a 	add	r2,r2,r3
   22c04:	11000015 	stw	r4,0(r2)
    //Get temperature
    bit_data = ((alt_16)response[i*2] << 8) | response[i*2+1];
    data = (float)bit_data;
    temperature = ((data - 21) / 333.87) + 21;
    //Get gyroscope value
    for(i=4; i<7; i++) {
   22c08:	e0bff417 	ldw	r2,-48(fp)
   22c0c:	10800044 	addi	r2,r2,1
   22c10:	e0bff415 	stw	r2,-48(fp)
   22c14:	e0bff417 	ldw	r2,-48(fp)
   22c18:	108001d0 	cmplti	r2,r2,7
   22c1c:	103fba1e 	bne	r2,zero,22b08 <__alt_data_end+0xfffe3708>
        bit_data = ((alt_16)response[i*2] << 8) | response[i*2+1];
        data = (float)bit_data;
        gyroscope_data[i-4] = (M_PI / 180) * data / gyro_divider;
    }
    //Get Magnetometer value
    for(i=7; i<10; i++) {
   22c20:	008001c4 	movi	r2,7
   22c24:	e0bff415 	stw	r2,-48(fp)
   22c28:	00002f06 	br	22ce8 <read_all+0x440>
        bit_data = ((alt_16)response[i*2+1] << 8) | response[i*2];
   22c2c:	e0bff417 	ldw	r2,-48(fp)
   22c30:	1085883a 	add	r2,r2,r2
   22c34:	10800044 	addi	r2,r2,1
   22c38:	e0fff704 	addi	r3,fp,-36
   22c3c:	1885883a 	add	r2,r3,r2
   22c40:	10800003 	ldbu	r2,0(r2)
   22c44:	10803fcc 	andi	r2,r2,255
   22c48:	1004923a 	slli	r2,r2,8
   22c4c:	1007883a 	mov	r3,r2
   22c50:	e0bff417 	ldw	r2,-48(fp)
   22c54:	1085883a 	add	r2,r2,r2
   22c58:	1009883a 	mov	r4,r2
   22c5c:	e0bff704 	addi	r2,fp,-36
   22c60:	1105883a 	add	r2,r2,r4
   22c64:	10800003 	ldbu	r2,0(r2)
   22c68:	10803fcc 	andi	r2,r2,255
   22c6c:	1884b03a 	or	r2,r3,r2
   22c70:	e0bff50d 	sth	r2,-44(fp)
        data = (float)bit_data;
   22c74:	e0bff50f 	ldh	r2,-44(fp)
   22c78:	1009883a 	mov	r4,r2
   22c7c:	0024a780 	call	24a78 <__floatsisf>
   22c80:	1007883a 	mov	r3,r2
   22c84:	e0fff615 	stw	r3,-40(fp)
        magnetometer_data[i-7] = data * magnetometer_ASA[i-7];
   22c88:	e0bff417 	ldw	r2,-48(fp)
   22c8c:	143ffe44 	addi	r16,r2,-7
   22c90:	e0bff417 	ldw	r2,-48(fp)
   22c94:	10fffe44 	addi	r3,r2,-7
   22c98:	00800134 	movhi	r2,4
   22c9c:	10a01904 	addi	r2,r2,-32668
   22ca0:	18c7883a 	add	r3,r3,r3
   22ca4:	18c7883a 	add	r3,r3,r3
   22ca8:	10c5883a 	add	r2,r2,r3
   22cac:	10c00017 	ldw	r3,0(r2)
   22cb0:	e17ff617 	ldw	r5,-40(fp)
   22cb4:	1809883a 	mov	r4,r3
   22cb8:	00241980 	call	24198 <__mulsf3>
   22cbc:	1007883a 	mov	r3,r2
   22cc0:	1809883a 	mov	r4,r3
   22cc4:	00800134 	movhi	r2,4
   22cc8:	10a01c04 	addi	r2,r2,-32656
   22ccc:	8407883a 	add	r3,r16,r16
   22cd0:	18c7883a 	add	r3,r3,r3
   22cd4:	10c5883a 	add	r2,r2,r3
   22cd8:	11000015 	stw	r4,0(r2)
        bit_data = ((alt_16)response[i*2] << 8) | response[i*2+1];
        data = (float)bit_data;
        gyroscope_data[i-4] = (M_PI / 180) * data / gyro_divider;
    }
    //Get Magnetometer value
    for(i=7; i<10; i++) {
   22cdc:	e0bff417 	ldw	r2,-48(fp)
   22ce0:	10800044 	addi	r2,r2,1
   22ce4:	e0bff415 	stw	r2,-48(fp)
   22ce8:	e0bff417 	ldw	r2,-48(fp)
   22cec:	10800290 	cmplti	r2,r2,10
   22cf0:	103fce1e 	bne	r2,zero,22c2c <__alt_data_end+0xfffe382c>
        bit_data = ((alt_16)response[i*2+1] << 8) | response[i*2];
        data = (float)bit_data;
        magnetometer_data[i-7] = data * magnetometer_ASA[i-7];
    }
}
   22cf4:	0001883a 	nop
   22cf8:	e6fffd04 	addi	sp,fp,-12
   22cfc:	dfc00417 	ldw	ra,16(sp)
   22d00:	df000317 	ldw	fp,12(sp)
   22d04:	dc800217 	ldw	r18,8(sp)
   22d08:	dc400117 	ldw	r17,4(sp)
   22d0c:	dc000017 	ldw	r16,0(sp)
   22d10:	dec00504 	addi	sp,sp,20
   22d14:	f800283a 	ret

00022d18 <getMotion9>:
usage: call this functions to read and get values
returns accel, gyro and mag values
-----------------------------------------------------------------------------------------------*/

void getMotion9(float *ax, float *ay, float *az, float *gx, float *gy, float *gz, float *mx, float *my, float *mz)
{
   22d18:	defffa04 	addi	sp,sp,-24
   22d1c:	dfc00515 	stw	ra,20(sp)
   22d20:	df000415 	stw	fp,16(sp)
   22d24:	df000404 	addi	fp,sp,16
   22d28:	e13ffc15 	stw	r4,-16(fp)
   22d2c:	e17ffd15 	stw	r5,-12(fp)
   22d30:	e1bffe15 	stw	r6,-8(fp)
   22d34:	e1ffff15 	stw	r7,-4(fp)
    read_all();
   22d38:	00228a80 	call	228a8 <read_all>
    *ax = accelerometer_data[0];
   22d3c:	00800134 	movhi	r2,4
   22d40:	10a01004 	addi	r2,r2,-32704
   22d44:	10c00017 	ldw	r3,0(r2)
   22d48:	e0bffc17 	ldw	r2,-16(fp)
   22d4c:	10c00015 	stw	r3,0(r2)
    *ay = accelerometer_data[1];
   22d50:	00800134 	movhi	r2,4
   22d54:	10a01004 	addi	r2,r2,-32704
   22d58:	10c00117 	ldw	r3,4(r2)
   22d5c:	e0bffd17 	ldw	r2,-12(fp)
   22d60:	10c00015 	stw	r3,0(r2)
    *az = accelerometer_data[2];
   22d64:	00800134 	movhi	r2,4
   22d68:	10a01004 	addi	r2,r2,-32704
   22d6c:	10c00217 	ldw	r3,8(r2)
   22d70:	e0bffe17 	ldw	r2,-8(fp)
   22d74:	10c00015 	stw	r3,0(r2)
    *gx = gyroscope_data[0];
   22d78:	00800134 	movhi	r2,4
   22d7c:	10a01604 	addi	r2,r2,-32680
   22d80:	10c00017 	ldw	r3,0(r2)
   22d84:	e0bfff17 	ldw	r2,-4(fp)
   22d88:	10c00015 	stw	r3,0(r2)
    *gy = gyroscope_data[1];
   22d8c:	00800134 	movhi	r2,4
   22d90:	10a01604 	addi	r2,r2,-32680
   22d94:	10c00117 	ldw	r3,4(r2)
   22d98:	e0800217 	ldw	r2,8(fp)
   22d9c:	10c00015 	stw	r3,0(r2)
    *gz = gyroscope_data[2];
   22da0:	00800134 	movhi	r2,4
   22da4:	10a01604 	addi	r2,r2,-32680
   22da8:	10c00217 	ldw	r3,8(r2)
   22dac:	e0800317 	ldw	r2,12(fp)
   22db0:	10c00015 	stw	r3,0(r2)
    *mx = magnetometer_data[0];
   22db4:	00800134 	movhi	r2,4
   22db8:	10a01c04 	addi	r2,r2,-32656
   22dbc:	10c00017 	ldw	r3,0(r2)
   22dc0:	e0800417 	ldw	r2,16(fp)
   22dc4:	10c00015 	stw	r3,0(r2)
    *my = magnetometer_data[1];
   22dc8:	00800134 	movhi	r2,4
   22dcc:	10a01c04 	addi	r2,r2,-32656
   22dd0:	10c00117 	ldw	r3,4(r2)
   22dd4:	e0800517 	ldw	r2,20(fp)
   22dd8:	10c00015 	stw	r3,0(r2)
    *mz = magnetometer_data[2];
   22ddc:	00800134 	movhi	r2,4
   22de0:	10a01c04 	addi	r2,r2,-32656
   22de4:	10c00217 	ldw	r3,8(r2)
   22de8:	e0800617 	ldw	r2,24(fp)
   22dec:	10c00015 	stw	r3,0(r2)
}
   22df0:	0001883a 	nop
   22df4:	e037883a 	mov	sp,fp
   22df8:	dfc00117 	ldw	ra,4(sp)
   22dfc:	df000017 	ldw	fp,0(sp)
   22e00:	dec00204 	addi	sp,sp,8
   22e04:	f800283a 	ret

00022e08 <getMotion6>:

//-----------------------------------------------------------------------------------------------

void getMotion6(float *ax, float *ay, float *az, float *gx, float *gy, float *gz)
{
   22e08:	defffa04 	addi	sp,sp,-24
   22e0c:	dfc00515 	stw	ra,20(sp)
   22e10:	df000415 	stw	fp,16(sp)
   22e14:	df000404 	addi	fp,sp,16
   22e18:	e13ffc15 	stw	r4,-16(fp)
   22e1c:	e17ffd15 	stw	r5,-12(fp)
   22e20:	e1bffe15 	stw	r6,-8(fp)
   22e24:	e1ffff15 	stw	r7,-4(fp)
    read_acc();
   22e28:	00223d40 	call	223d4 <read_acc>
    read_gyro();
   22e2c:	002253c0 	call	2253c <read_gyro>
    *ax = accelerometer_data[0];
   22e30:	00800134 	movhi	r2,4
   22e34:	10a01004 	addi	r2,r2,-32704
   22e38:	10c00017 	ldw	r3,0(r2)
   22e3c:	e0bffc17 	ldw	r2,-16(fp)
   22e40:	10c00015 	stw	r3,0(r2)
    *ay = accelerometer_data[1];
   22e44:	00800134 	movhi	r2,4
   22e48:	10a01004 	addi	r2,r2,-32704
   22e4c:	10c00117 	ldw	r3,4(r2)
   22e50:	e0bffd17 	ldw	r2,-12(fp)
   22e54:	10c00015 	stw	r3,0(r2)
    *az = accelerometer_data[2];
   22e58:	00800134 	movhi	r2,4
   22e5c:	10a01004 	addi	r2,r2,-32704
   22e60:	10c00217 	ldw	r3,8(r2)
   22e64:	e0bffe17 	ldw	r2,-8(fp)
   22e68:	10c00015 	stw	r3,0(r2)
    *gx = gyroscope_data[0];
   22e6c:	00800134 	movhi	r2,4
   22e70:	10a01604 	addi	r2,r2,-32680
   22e74:	10c00017 	ldw	r3,0(r2)
   22e78:	e0bfff17 	ldw	r2,-4(fp)
   22e7c:	10c00015 	stw	r3,0(r2)
    *gy = gyroscope_data[1];
   22e80:	00800134 	movhi	r2,4
   22e84:	10a01604 	addi	r2,r2,-32680
   22e88:	10c00117 	ldw	r3,4(r2)
   22e8c:	e0800217 	ldw	r2,8(fp)
   22e90:	10c00015 	stw	r3,0(r2)
    *gz = gyroscope_data[2];
   22e94:	00800134 	movhi	r2,4
   22e98:	10a01604 	addi	r2,r2,-32680
   22e9c:	10c00217 	ldw	r3,8(r2)
   22ea0:	e0800317 	ldw	r2,12(fp)
   22ea4:	10c00015 	stw	r3,0(r2)
}
   22ea8:	0001883a 	nop
   22eac:	e037883a 	mov	sp,fp
   22eb0:	dfc00117 	ldw	ra,4(sp)
   22eb4:	df000017 	ldw	fp,0(sp)
   22eb8:	dec00204 	addi	sp,sp,8
   22ebc:	f800283a 	ret

00022ec0 <RH_Temp_Init>:

bool th_write_register(alt_u8 RegisterPorinter, alt_u16 Data16);
bool th_read_register(alt_u8 RegisterPorinter, alt_u16 *pData16);

void RH_Temp_Init(alt_u32 I2C_Controller_Base)
{
   22ec0:	defffa04 	addi	sp,sp,-24
   22ec4:	dfc00515 	stw	ra,20(sp)
   22ec8:	df000415 	stw	fp,16(sp)
   22ecc:	df000404 	addi	fp,sp,16
   22ed0:	e13fff15 	stw	r4,-4(fp)
	const int ref_clk = 50*1000*1000; // 50Mhz
   22ed4:	0080bef4 	movhi	r2,763
   22ed8:	10bc2004 	addi	r2,r2,-3968
   22edc:	e0bffc15 	stw	r2,-16(fp)
	const int i2c_clk = 400*1000; // 400KHz
   22ee0:	008001b4 	movhi	r2,6
   22ee4:	1086a004 	addi	r2,r2,6784
   22ee8:	e0bffd15 	stw	r2,-12(fp)
//	MPU9250_I2C_Controller_Base = I2C_Controller_Base;
	oc_i2c_init_ex(I2C_Controller_Base, ref_clk, i2c_clk);
   22eec:	e0bfff17 	ldw	r2,-4(fp)
   22ef0:	e1bffd17 	ldw	r6,-12(fp)
   22ef4:	e17ffc17 	ldw	r5,-16(fp)
   22ef8:	1009883a 	mov	r4,r2
   22efc:	00203980 	call	20398 <oc_i2c_init_ex>

    // reset
	bool bPass;
    bPass = th_reset(RH_TEMP_I2C_OPENCORES_BASE);
   22f00:	01000134 	movhi	r4,4
   22f04:	21040004 	addi	r4,r4,4096
   22f08:	00234a00 	call	234a0 <th_reset>
   22f0c:	e0bffe05 	stb	r2,-8(fp)
    if (!bPass){
   22f10:	e0bffe03 	ldbu	r2,-8(fp)
   22f14:	1080005c 	xori	r2,r2,1
   22f18:	10803fcc 	andi	r2,r2,255
   22f1c:	10000b26 	beq	r2,zero,22f4c <RH_Temp_Init+0x8c>
    	bPass = th_reset(RH_TEMP_I2C_OPENCORES_BASE); // try again
   22f20:	01000134 	movhi	r4,4
   22f24:	21040004 	addi	r4,r4,4096
   22f28:	00234a00 	call	234a0 <th_reset>
   22f2c:	e0bffe05 	stb	r2,-8(fp)
    	if (!bPass){
   22f30:	e0bffe03 	ldbu	r2,-8(fp)
   22f34:	1080005c 	xori	r2,r2,1
   22f38:	10803fcc 	andi	r2,r2,255
   22f3c:	10000326 	beq	r2,zero,22f4c <RH_Temp_Init+0x8c>
    		printf("Failed to reset!\r\n");
   22f40:	010000f4 	movhi	r4,3
   22f44:	21110a04 	addi	r4,r4,17448
   22f48:	002727c0 	call	2727c <puts>
    }

    //th_dump_chip_info(RH_TEMP_I2C_OPENCORES_BASE);


}
   22f4c:	0001883a 	nop
   22f50:	e037883a 	mov	sp,fp
   22f54:	dfc00117 	ldw	ra,4(sp)
   22f58:	df000017 	ldw	fp,0(sp)
   22f5c:	dec00204 	addi	sp,sp,8
   22f60:	f800283a 	ret

00022f64 <RH_Temp_Read_Device_ID>:

bool RH_Temp_Read_Device_ID(alt_u16 *pID16){
   22f64:	defffb04 	addi	sp,sp,-20
   22f68:	dfc00415 	stw	ra,16(sp)
   22f6c:	df000315 	stw	fp,12(sp)
   22f70:	df000304 	addi	fp,sp,12
   22f74:	e13fff15 	stw	r4,-4(fp)
	bool bPass;
	alt_u8 szData8[2];

	bPass =  OC_I2C_Read(RH_TEMP_I2C_OPENCORES_BASE, RH_Temp_DEVICE_ADDR, R_DEVICE_ID, szData8, sizeof(szData8));
   22f78:	e0fffe44 	addi	r3,fp,-7
   22f7c:	00800084 	movi	r2,2
   22f80:	d8800015 	stw	r2,0(sp)
   22f84:	180f883a 	mov	r7,r3
   22f88:	01803fc4 	movi	r6,255
   22f8c:	01402004 	movi	r5,128
   22f90:	01000134 	movhi	r4,4
   22f94:	21040004 	addi	r4,r4,4096
   22f98:	002091c0 	call	2091c <OC_I2C_Read>
   22f9c:	e0bffe05 	stb	r2,-8(fp)
	if (bPass){
   22fa0:	e0bffe03 	ldbu	r2,-8(fp)
   22fa4:	10001126 	beq	r2,zero,22fec <RH_Temp_Read_Device_ID+0x88>
		*pID16 = (szData8[0] << 8) | szData8[1];
   22fa8:	e0bffe43 	ldbu	r2,-7(fp)
   22fac:	10803fcc 	andi	r2,r2,255
   22fb0:	1004923a 	slli	r2,r2,8
   22fb4:	1007883a 	mov	r3,r2
   22fb8:	e0bffe83 	ldbu	r2,-6(fp)
   22fbc:	10803fcc 	andi	r2,r2,255
   22fc0:	1884b03a 	or	r2,r3,r2
   22fc4:	1007883a 	mov	r3,r2
   22fc8:	e0bfff17 	ldw	r2,-4(fp)
   22fcc:	10c0000d 	sth	r3,0(r2)
		printf("Device ID=%04xh\r\n", *pID16);
   22fd0:	e0bfff17 	ldw	r2,-4(fp)
   22fd4:	1080000b 	ldhu	r2,0(r2)
   22fd8:	10bfffcc 	andi	r2,r2,65535
   22fdc:	100b883a 	mov	r5,r2
   22fe0:	010000f4 	movhi	r4,3
   22fe4:	21110f04 	addi	r4,r4,17468
   22fe8:	00271800 	call	27180 <printf>
	}
	return bPass;
   22fec:	e0bffe03 	ldbu	r2,-8(fp)


}
   22ff0:	e037883a 	mov	sp,fp
   22ff4:	dfc00117 	ldw	ra,4(sp)
   22ff8:	df000017 	ldw	fp,0(sp)
   22ffc:	dec00204 	addi	sp,sp,8
   23000:	f800283a 	ret

00023004 <RH_Temp_Sensor_Init>:


bool RH_Temp_Sensor_Init()
{
   23004:	defffd04 	addi	sp,sp,-12
   23008:	dfc00215 	stw	ra,8(sp)
   2300c:	df000115 	stw	fp,4(sp)
   23010:	df000104 	addi	fp,sp,4


    //Temperature and Humidity are acquired in sequence, Temperature first.
    //Temperature Measurement Resolution: 14 bits
    //Humidity Measurement Resolution: 14 bits
	bPass =  Write_Configuration(1,0,0);
   23014:	000d883a 	mov	r6,zero
   23018:	000b883a 	mov	r5,zero
   2301c:	01000044 	movi	r4,1
   23020:	00232cc0 	call	232cc <Write_Configuration>
   23024:	e0bfff05 	stb	r2,-4(fp)
//    else
//    {
//    	printf("RH_Temp Sensor Set Configuration Failed!\r\n");
//    }

    return bPass;
   23028:	e0bfff03 	ldbu	r2,-4(fp)

}
   2302c:	e037883a 	mov	sp,fp
   23030:	dfc00117 	ldw	ra,4(sp)
   23034:	df000017 	ldw	fp,0(sp)
   23038:	dec00204 	addi	sp,sp,8
   2303c:	f800283a 	ret

00023040 <RH_Temp_Sensor_Read>:

bool RH_Temp_Sensor_Read(float *fTemperature, float *fHumidity){
   23040:	defffa04 	addi	sp,sp,-24
   23044:	dfc00515 	stw	ra,20(sp)
   23048:	df000415 	stw	fp,16(sp)
   2304c:	df000404 	addi	fp,sp,16
   23050:	e13ffe15 	stw	r4,-8(fp)
   23054:	e17fff15 	stw	r5,-4(fp)
	bool bPass;
	alt_u8 szValue8[4];
	alt_u16 Value16;
	//int i;

	bPass =  th_Read_Measure_Data(R_TEMPERATURE, szValue8, sizeof(szValue8));
   23058:	e0bffd04 	addi	r2,fp,-12
   2305c:	01800104 	movi	r6,4
   23060:	100b883a 	mov	r5,r2
   23064:	0009883a 	mov	r4,zero
   23068:	00233640 	call	23364 <th_Read_Measure_Data>
   2306c:	e0bffc05 	stb	r2,-16(fp)
	if (bPass){
   23070:	e0bffc03 	ldbu	r2,-16(fp)
   23074:	10004226 	beq	r2,zero,23180 <RH_Temp_Sensor_Read+0x140>
		//for(i=0;i<4;i++)
		//	printf("%02XH ", szValue8[i]);

		// temperature
		Value16 = (szValue8[0] << 8) | szValue8[1];
   23078:	e0bffd03 	ldbu	r2,-12(fp)
   2307c:	10803fcc 	andi	r2,r2,255
   23080:	1004923a 	slli	r2,r2,8
   23084:	1007883a 	mov	r3,r2
   23088:	e0bffd43 	ldbu	r2,-11(fp)
   2308c:	10803fcc 	andi	r2,r2,255
   23090:	1884b03a 	or	r2,r3,r2
   23094:	e0bffc8d 	sth	r2,-14(fp)
		*fTemperature = (float)Value16/397.188 -40.0;
   23098:	e0bffc8b 	ldhu	r2,-14(fp)
   2309c:	1009883a 	mov	r4,r2
   230a0:	0024b9c0 	call	24b9c <__floatunsisf>
   230a4:	1007883a 	mov	r3,r2
   230a8:	1809883a 	mov	r4,r3
   230ac:	0026e340 	call	26e34 <__extendsfdf2>
   230b0:	1011883a 	mov	r8,r2
   230b4:	1813883a 	mov	r9,r3
   230b8:	018312b4 	movhi	r6,3146
   230bc:	31ae9784 	addi	r6,r6,-17826
   230c0:	01d01e74 	movhi	r7,16505
   230c4:	39f4c084 	addi	r7,r7,-11518
   230c8:	4009883a 	mov	r4,r8
   230cc:	480b883a 	mov	r5,r9
   230d0:	00255380 	call	25538 <__divdf3>
   230d4:	1009883a 	mov	r4,r2
   230d8:	180b883a 	mov	r5,r3
   230dc:	2005883a 	mov	r2,r4
   230e0:	2807883a 	mov	r3,r5
   230e4:	000d883a 	mov	r6,zero
   230e8:	01d01134 	movhi	r7,16452
   230ec:	1009883a 	mov	r4,r2
   230f0:	180b883a 	mov	r5,r3
   230f4:	00265380 	call	26538 <__subdf3>
   230f8:	1009883a 	mov	r4,r2
   230fc:	180b883a 	mov	r5,r3
   23100:	2005883a 	mov	r2,r4
   23104:	2807883a 	mov	r3,r5
   23108:	1009883a 	mov	r4,r2
   2310c:	180b883a 	mov	r5,r3
   23110:	0026f440 	call	26f44 <__truncdfsf2>
   23114:	1007883a 	mov	r3,r2
   23118:	e0bffe17 	ldw	r2,-8(fp)
   2311c:	10c00015 	stw	r3,0(r2)

		// humidity
		Value16 = (szValue8[2] << 8) | szValue8[3];
   23120:	e0bffd83 	ldbu	r2,-10(fp)
   23124:	10803fcc 	andi	r2,r2,255
   23128:	1004923a 	slli	r2,r2,8
   2312c:	1007883a 	mov	r3,r2
   23130:	e0bffdc3 	ldbu	r2,-9(fp)
   23134:	10803fcc 	andi	r2,r2,255
   23138:	1884b03a 	or	r2,r3,r2
   2313c:	e0bffc8d 	sth	r2,-14(fp)
		*fHumidity = (float)((float)Value16/65536)*100;
   23140:	e0bffc8b 	ldhu	r2,-14(fp)
   23144:	1009883a 	mov	r4,r2
   23148:	0024b9c0 	call	24b9c <__floatunsisf>
   2314c:	1007883a 	mov	r3,r2
   23150:	0151e034 	movhi	r5,18304
   23154:	1809883a 	mov	r4,r3
   23158:	0023d580 	call	23d58 <__divsf3>
   2315c:	1007883a 	mov	r3,r2
   23160:	1805883a 	mov	r2,r3
   23164:	0150b234 	movhi	r5,17096
   23168:	1009883a 	mov	r4,r2
   2316c:	00241980 	call	24198 <__mulsf3>
   23170:	1009883a 	mov	r4,r2
   23174:	2007883a 	mov	r3,r4
   23178:	e0bfff17 	ldw	r2,-4(fp)
   2317c:	10c00015 	stw	r3,0(r2)
	}

	return bPass;
   23180:	e0bffc03 	ldbu	r2,-16(fp)

}
   23184:	e037883a 	mov	sp,fp
   23188:	dfc00117 	ldw	ra,4(sp)
   2318c:	df000017 	ldw	fp,0(sp)
   23190:	dec00204 	addi	sp,sp,8
   23194:	f800283a 	ret

00023198 <Read_Configuration>:



bool Read_Configuration(void)
{
   23198:	defffd04 	addi	sp,sp,-12
   2319c:	dfc00215 	stw	ra,8(sp)
   231a0:	df000115 	stw	fp,4(sp)
   231a4:	df000104 	addi	fp,sp,4
	bool bPass;
	alt_u16 data;

	bPass = th_read_register(R_CONFIGURATION, &data);
   231a8:	e0bfff84 	addi	r2,fp,-2
   231ac:	100b883a 	mov	r5,r2
   231b0:	01000084 	movi	r4,2
   231b4:	002364c0 	call	2364c <th_read_register>
   231b8:	e0bfff05 	stb	r2,-4(fp)


	if(bPass){
   231bc:	e0bfff03 	ldbu	r2,-4(fp)
   231c0:	10003926 	beq	r2,zero,232a8 <Read_Configuration+0x110>

		printf("Read Configuration Data = 0x%04X \r\n",data);
   231c4:	e0bfff8b 	ldhu	r2,-2(fp)
   231c8:	10bfffcc 	andi	r2,r2,65535
   231cc:	100b883a 	mov	r5,r2
   231d0:	010000f4 	movhi	r4,3
   231d4:	21111404 	addi	r4,r4,17488
   231d8:	00271800 	call	27180 <printf>

		if(((data>>12)&0x0001) == 0) printf("Acquisition mode:Temperature or Humidity is acquired.\r\n ");
   231dc:	e0bfff8b 	ldhu	r2,-2(fp)
   231e0:	10bfffcc 	andi	r2,r2,65535
   231e4:	1004d33a 	srli	r2,r2,12
   231e8:	10bfffcc 	andi	r2,r2,65535
   231ec:	1080004c 	andi	r2,r2,1
   231f0:	1000041e 	bne	r2,zero,23204 <Read_Configuration+0x6c>
   231f4:	010000f4 	movhi	r4,3
   231f8:	21111d04 	addi	r4,r4,17524
   231fc:	00271800 	call	27180 <printf>
   23200:	00000306 	br	23210 <Read_Configuration+0x78>
		else printf("Acquisition mode:Temperature and Humidity are acquired in sequence,Temperature first.\r\n ");
   23204:	010000f4 	movhi	r4,3
   23208:	21112c04 	addi	r4,r4,17584
   2320c:	00271800 	call	27180 <printf>

		if(((data>>10)&0x0001) == 0) printf("Temperature Measurement Resolution: 14 bit.\r\n ");
   23210:	e0bfff8b 	ldhu	r2,-2(fp)
   23214:	10bfffcc 	andi	r2,r2,65535
   23218:	1004d2ba 	srli	r2,r2,10
   2321c:	10bfffcc 	andi	r2,r2,65535
   23220:	1080004c 	andi	r2,r2,1
   23224:	1000041e 	bne	r2,zero,23238 <Read_Configuration+0xa0>
   23228:	010000f4 	movhi	r4,3
   2322c:	21114304 	addi	r4,r4,17676
   23230:	00271800 	call	27180 <printf>
   23234:	00000306 	br	23244 <Read_Configuration+0xac>
		else  printf("Temperature Measurement Resolution: 11 bit.\r\n ");
   23238:	010000f4 	movhi	r4,3
   2323c:	21114f04 	addi	r4,r4,17724
   23240:	00271800 	call	27180 <printf>

		if(((data>> 8)&0x0003) == 0) printf("Humidity Measurement Resolution: 14 bit.\r\n ");
   23244:	e0bfff8b 	ldhu	r2,-2(fp)
   23248:	10bfffcc 	andi	r2,r2,65535
   2324c:	1004d23a 	srli	r2,r2,8
   23250:	10bfffcc 	andi	r2,r2,65535
   23254:	108000cc 	andi	r2,r2,3
   23258:	1000041e 	bne	r2,zero,2326c <Read_Configuration+0xd4>
   2325c:	010000f4 	movhi	r4,3
   23260:	21115b04 	addi	r4,r4,17772
   23264:	00271800 	call	27180 <printf>
   23268:	00001206 	br	232b4 <Read_Configuration+0x11c>
		else if(((data>> 8)&0x0003) == 1) printf("Humidity Measurement Resolution: 11 bit.\r\n ");
   2326c:	e0bfff8b 	ldhu	r2,-2(fp)
   23270:	10bfffcc 	andi	r2,r2,65535
   23274:	1004d23a 	srli	r2,r2,8
   23278:	10bfffcc 	andi	r2,r2,65535
   2327c:	108000cc 	andi	r2,r2,3
   23280:	10800058 	cmpnei	r2,r2,1
   23284:	1000041e 	bne	r2,zero,23298 <Read_Configuration+0x100>
   23288:	010000f4 	movhi	r4,3
   2328c:	21116604 	addi	r4,r4,17816
   23290:	00271800 	call	27180 <printf>
   23294:	00000706 	br	232b4 <Read_Configuration+0x11c>
		else  printf("Humidity Measurement Resolution: 8 bit.\r\n ");
   23298:	010000f4 	movhi	r4,3
   2329c:	21117104 	addi	r4,r4,17860
   232a0:	00271800 	call	27180 <printf>
   232a4:	00000306 	br	232b4 <Read_Configuration+0x11c>

	}else{
		printf("Failed to read configure data.\r\n");
   232a8:	010000f4 	movhi	r4,3
   232ac:	21117c04 	addi	r4,r4,17904
   232b0:	002727c0 	call	2727c <puts>
	}

	return bPass;
   232b4:	e0bfff03 	ldbu	r2,-4(fp)
}
   232b8:	e037883a 	mov	sp,fp
   232bc:	dfc00117 	ldw	ra,4(sp)
   232c0:	df000017 	ldw	fp,0(sp)
   232c4:	dec00204 	addi	sp,sp,8
   232c8:	f800283a 	ret

000232cc <Write_Configuration>:



bool Write_Configuration(alt_u8 acquisition_mode , alt_u8 temp_resolution,alt_u8 humidity_resolution)
{
   232cc:	defffa04 	addi	sp,sp,-24
   232d0:	dfc00515 	stw	ra,20(sp)
   232d4:	df000415 	stw	fp,16(sp)
   232d8:	df000404 	addi	fp,sp,16
   232dc:	2807883a 	mov	r3,r5
   232e0:	3005883a 	mov	r2,r6
   232e4:	e13ffd05 	stb	r4,-12(fp)
   232e8:	e0fffe05 	stb	r3,-8(fp)
   232ec:	e0bfff05 	stb	r2,-4(fp)
	bool bPass;
	alt_u16 Data16;


	Data16 = ((acquisition_mode&0x0001) <<12) + ((temp_resolution&0x0001)<<10) + ((humidity_resolution&0x0003)<<8);
   232f0:	e0bffd03 	ldbu	r2,-12(fp)
   232f4:	1080004c 	andi	r2,r2,1
   232f8:	1004933a 	slli	r2,r2,12
   232fc:	1007883a 	mov	r3,r2
   23300:	e0bffe03 	ldbu	r2,-8(fp)
   23304:	1080004c 	andi	r2,r2,1
   23308:	100492ba 	slli	r2,r2,10
   2330c:	1885883a 	add	r2,r3,r2
   23310:	1007883a 	mov	r3,r2
   23314:	e0bfff03 	ldbu	r2,-4(fp)
   23318:	108000cc 	andi	r2,r2,3
   2331c:	1004923a 	slli	r2,r2,8
   23320:	1885883a 	add	r2,r3,r2
   23324:	e0bffc0d 	sth	r2,-16(fp)

	//printf("Write Configure Register: %04xh\r\n", Data16);

	bPass = th_write_register(R_CONFIGURATION, Data16);
   23328:	e0bffc0b 	ldhu	r2,-16(fp)
   2332c:	100b883a 	mov	r5,r2
   23330:	01000084 	movi	r4,2
   23334:	00235d40 	call	235d4 <th_write_register>
   23338:	e0bffc85 	stb	r2,-14(fp)

	if (bPass)
   2333c:	e0bffc83 	ldbu	r2,-14(fp)
   23340:	10000226 	beq	r2,zero,2334c <Write_Configuration+0x80>
		usleep(20*1000); // wait ready
   23344:	01138804 	movi	r4,20000
   23348:	00320640 	call	32064 <usleep>

	return bPass;
   2334c:	e0bffc83 	ldbu	r2,-14(fp)
}
   23350:	e037883a 	mov	sp,fp
   23354:	dfc00117 	ldw	ra,4(sp)
   23358:	df000017 	ldw	fp,0(sp)
   2335c:	dec00204 	addi	sp,sp,8
   23360:	f800283a 	ret

00023364 <th_Read_Measure_Data>:


bool th_Read_Measure_Data(int nRegisterNo, alt_u8 *pData8, int nReadLength)
{
   23364:	defff804 	addi	sp,sp,-32
   23368:	dfc00715 	stw	ra,28(sp)
   2336c:	df000615 	stw	fp,24(sp)
   23370:	dc000515 	stw	r16,20(sp)
   23374:	df000604 	addi	fp,sp,24
   23378:	e13ffc15 	stw	r4,-16(fp)
   2337c:	e17ffd15 	stw	r5,-12(fp)
   23380:	e1bffe15 	stw	r6,-8(fp)
	bool bPass;
	const bool bSTOP = TRUE; // need stop so the ready pin can assert when measure is done
   23384:	00800044 	movi	r2,1
   23388:	e0bffa85 	stb	r2,-22(fp)

	// write address
	bPass = OC_I2C_Write_Addr(RH_TEMP_I2C_OPENCORES_BASE,RH_Temp_DEVICE_ADDR,nRegisterNo, bSTOP);
   2338c:	e0bffc17 	ldw	r2,-16(fp)
   23390:	10803fcc 	andi	r2,r2,255
   23394:	e0fffa83 	ldbu	r3,-22(fp)
   23398:	180f883a 	mov	r7,r3
   2339c:	100d883a 	mov	r6,r2
   233a0:	01402004 	movi	r5,128
   233a4:	01000134 	movhi	r4,4
   233a8:	21040004 	addi	r4,r4,4096
   233ac:	0020b080 	call	20b08 <OC_I2C_Write_Addr>
   233b0:	e0bffa05 	stb	r2,-24(fp)

	// check hardware pin DRDYn to make sure measure is done
	if (bPass){ // check ready hardware pin - DRDYn
   233b4:	e0bffa03 	ldbu	r2,-24(fp)
   233b8:	10002926 	beq	r2,zero,23460 <th_Read_Measure_Data+0xfc>
		//
		bool bTimeout = false;
   233bc:	e03ffa45 	stb	zero,-23(fp)
		alt_u32 TimeStart;

		bPass = false;
   233c0:	e03ffa05 	stb	zero,-24(fp)
 * alt_nticks() returns the elapsed number of system clock ticks since reset.
 */

static ALT_INLINE alt_u32 ALT_ALWAYS_INLINE alt_nticks (void)
{
  return _alt_nticks;
   233c4:	d0a6db17 	ldw	r2,-25748(gp)
		TimeStart = alt_nticks();
   233c8:	e0bffb15 	stw	r2,-20(fp)
		bTimeout = false;
   233cc:	e03ffa45 	stb	zero,-23(fp)
		while(!bPass && !bTimeout){
   233d0:	00001206 	br	2341c <th_Read_Measure_Data+0xb8>
			if ((IORD(RH_TEMP_DRDY_N_BASE, 0x00) & 0x01) == 0x00)
   233d4:	00800134 	movhi	r2,4
   233d8:	10842004 	addi	r2,r2,4224
   233dc:	10800037 	ldwio	r2,0(r2)
   233e0:	1080004c 	andi	r2,r2,1
   233e4:	1000031e 	bne	r2,zero,233f4 <th_Read_Measure_Data+0x90>
				bPass = TRUE;
   233e8:	00800044 	movi	r2,1
   233ec:	e0bffa05 	stb	r2,-24(fp)
   233f0:	00000a06 	br	2341c <th_Read_Measure_Data+0xb8>
   233f4:	d0e6db17 	ldw	r3,-25748(gp)
			else if ((alt_nticks() - TimeStart) > alt_ticks_per_second()/10) // 0.1 second for timeout
   233f8:	e0bffb17 	ldw	r2,-20(fp)
   233fc:	18a1c83a 	sub	r16,r3,r2
 * Obtain the system clock rate in ticks/s. 
 */

static ALT_INLINE alt_u32 ALT_ALWAYS_INLINE alt_ticks_per_second (void)
{
  return _alt_tick_rate;
   23400:	d0a6da17 	ldw	r2,-25752(gp)
   23404:	01400284 	movi	r5,10
   23408:	1009883a 	mov	r4,r2
   2340c:	00237d40 	call	237d4 <__udivsi3>
   23410:	1400022e 	bgeu	r2,r16,2341c <th_Read_Measure_Data+0xb8>
				bTimeout = TRUE;
   23414:	00800044 	movi	r2,1
   23418:	e0bffa45 	stb	r2,-23(fp)
		alt_u32 TimeStart;

		bPass = false;
		TimeStart = alt_nticks();
		bTimeout = false;
		while(!bPass && !bTimeout){
   2341c:	e0bffa03 	ldbu	r2,-24(fp)
   23420:	1080005c 	xori	r2,r2,1
   23424:	10803fcc 	andi	r2,r2,255
   23428:	10000426 	beq	r2,zero,2343c <th_Read_Measure_Data+0xd8>
   2342c:	e0bffa43 	ldbu	r2,-23(fp)
   23430:	1080005c 	xori	r2,r2,1
   23434:	10803fcc 	andi	r2,r2,255
   23438:	103fe61e 	bne	r2,zero,233d4 <__alt_data_end+0xfffe3fd4>
			if ((IORD(RH_TEMP_DRDY_N_BASE, 0x00) & 0x01) == 0x00)
				bPass = TRUE;
			else if ((alt_nticks() - TimeStart) > alt_ticks_per_second()/10) // 0.1 second for timeout
				bTimeout = TRUE;
		}
		if (!bPass)
   2343c:	e0bffa03 	ldbu	r2,-24(fp)
   23440:	1080005c 	xori	r2,r2,1
   23444:	10803fcc 	andi	r2,r2,255
   23448:	10000326 	beq	r2,zero,23458 <th_Read_Measure_Data+0xf4>
			printf("Warning: DRDYn pin not ready (high)!\r\n");
   2344c:	010000f4 	movhi	r4,3
   23450:	21118404 	addi	r4,r4,17936
   23454:	002727c0 	call	2727c <puts>
		bPass = TRUE;
   23458:	00800044 	movi	r2,1
   2345c:	e0bffa05 	stb	r2,-24(fp)
	}

	// read measured data
	if (bPass){
   23460:	e0bffa03 	ldbu	r2,-24(fp)
   23464:	10000726 	beq	r2,zero,23484 <th_Read_Measure_Data+0x120>
		bPass =  OC_I2C_Read_Continue(RH_TEMP_I2C_OPENCORES_BASE,RH_Temp_DEVICE_ADDR, pData8, nReadLength);
   23468:	e1fffe17 	ldw	r7,-8(fp)
   2346c:	e1bffd17 	ldw	r6,-12(fp)
   23470:	01402004 	movi	r5,128
   23474:	01000134 	movhi	r4,4
   23478:	21040004 	addi	r4,r4,4096
   2347c:	0020c100 	call	20c10 <OC_I2C_Read_Continue>
   23480:	e0bffa05 	stb	r2,-24(fp)

	}



	return bPass;
   23484:	e0bffa03 	ldbu	r2,-24(fp)
}
   23488:	e6ffff04 	addi	sp,fp,-4
   2348c:	dfc00217 	ldw	ra,8(sp)
   23490:	df000117 	ldw	fp,4(sp)
   23494:	dc000017 	ldw	r16,0(sp)
   23498:	dec00304 	addi	sp,sp,12
   2349c:	f800283a 	ret

000234a0 <th_reset>:


bool th_reset(alt_u32 I2C_Controller_Base){
   234a0:	defffc04 	addi	sp,sp,-16
   234a4:	dfc00315 	stw	ra,12(sp)
   234a8:	df000215 	stw	fp,8(sp)
   234ac:	df000204 	addi	fp,sp,8
   234b0:	e13fff15 	stw	r4,-4(fp)
	bool bPass;

	bPass = th_write_register(R_CONFIGURATION, 0x8000);
   234b4:	01600014 	movui	r5,32768
   234b8:	01000084 	movi	r4,2
   234bc:	00235d40 	call	235d4 <th_write_register>
   234c0:	e0bffe05 	stb	r2,-8(fp)
	return bPass;
   234c4:	e0bffe03 	ldbu	r2,-8(fp)
}
   234c8:	e037883a 	mov	sp,fp
   234cc:	dfc00117 	ldw	ra,4(sp)
   234d0:	df000017 	ldw	fp,0(sp)
   234d4:	dec00204 	addi	sp,sp,8
   234d8:	f800283a 	ret

000234dc <th_dump_chip_info>:


bool th_dump_chip_info(alt_u32 I2C_Controller_Base){
   234dc:	defffc04 	addi	sp,sp,-16
   234e0:	dfc00315 	stw	ra,12(sp)
   234e4:	df000215 	stw	fp,8(sp)
   234e8:	df000204 	addi	fp,sp,8
   234ec:	e13fff15 	stw	r4,-4(fp)
	alt_u16 Data16;
	bool bPass;

	// R_DEVICE_ID
	bPass = th_read_register(R_DEVICE_ID, &Data16);
   234f0:	e0bffe84 	addi	r2,fp,-6
   234f4:	100b883a 	mov	r5,r2
   234f8:	01003fc4 	movi	r4,255
   234fc:	002364c0 	call	2364c <th_read_register>
   23500:	e0bffe05 	stb	r2,-8(fp)
	if (bPass){
   23504:	e0bffe03 	ldbu	r2,-8(fp)
   23508:	10000726 	beq	r2,zero,23528 <th_dump_chip_info+0x4c>
		printf("DEVICE ID=%04xh(0x1000 expected)\r\n", Data16);
   2350c:	e0bffe8b 	ldhu	r2,-6(fp)
   23510:	10bfffcc 	andi	r2,r2,65535
   23514:	100b883a 	mov	r5,r2
   23518:	010000f4 	movhi	r4,3
   2351c:	21118e04 	addi	r4,r4,17976
   23520:	00271800 	call	27180 <printf>
   23524:	00000306 	br	23534 <th_dump_chip_info+0x58>
	}else{
		printf("Failed to read DEVICE ID\r\n");
   23528:	010000f4 	movhi	r4,3
   2352c:	21119704 	addi	r4,r4,18012
   23530:	002727c0 	call	2727c <puts>
	}

	// R_DEVICE_ID
	bPass = th_read_register(R_MANUFACTURER_ID, &Data16);
   23534:	e0bffe84 	addi	r2,fp,-6
   23538:	100b883a 	mov	r5,r2
   2353c:	01003f84 	movi	r4,254
   23540:	002364c0 	call	2364c <th_read_register>
   23544:	e0bffe05 	stb	r2,-8(fp)
	if (bPass){
   23548:	e0bffe03 	ldbu	r2,-8(fp)
   2354c:	10000726 	beq	r2,zero,2356c <th_dump_chip_info+0x90>
		printf("MANUFACTURER ID=%04xh(0x5449 expected)\r\n", Data16);
   23550:	e0bffe8b 	ldhu	r2,-6(fp)
   23554:	10bfffcc 	andi	r2,r2,65535
   23558:	100b883a 	mov	r5,r2
   2355c:	010000f4 	movhi	r4,3
   23560:	21119e04 	addi	r4,r4,18040
   23564:	00271800 	call	27180 <printf>
   23568:	00000306 	br	23578 <th_dump_chip_info+0x9c>
	}else{
		printf("Failed to read MANUFACTURER ID\r\n");
   2356c:	010000f4 	movhi	r4,3
   23570:	2111a904 	addi	r4,r4,18084
   23574:	002727c0 	call	2727c <puts>
	}

	// configure Data
	bPass =  th_read_register(R_CONFIGURATION, &Data16);
   23578:	e0bffe84 	addi	r2,fp,-6
   2357c:	100b883a 	mov	r5,r2
   23580:	01000084 	movi	r4,2
   23584:	002364c0 	call	2364c <th_read_register>
   23588:	e0bffe05 	stb	r2,-8(fp)
	if (bPass){
   2358c:	e0bffe03 	ldbu	r2,-8(fp)
   23590:	10000726 	beq	r2,zero,235b0 <th_dump_chip_info+0xd4>
		printf("Configure Data=%04xh\r\n", Data16);
   23594:	e0bffe8b 	ldhu	r2,-6(fp)
   23598:	10bfffcc 	andi	r2,r2,65535
   2359c:	100b883a 	mov	r5,r2
   235a0:	010000f4 	movhi	r4,3
   235a4:	2111b104 	addi	r4,r4,18116
   235a8:	00271800 	call	27180 <printf>
   235ac:	00000306 	br	235bc <th_dump_chip_info+0xe0>
	}else{
		printf("Failed to read configure data\r\n");
   235b0:	010000f4 	movhi	r4,3
   235b4:	2111b704 	addi	r4,r4,18140
   235b8:	002727c0 	call	2727c <puts>
	}

	return bPass;
   235bc:	e0bffe03 	ldbu	r2,-8(fp)
}
   235c0:	e037883a 	mov	sp,fp
   235c4:	dfc00117 	ldw	ra,4(sp)
   235c8:	df000017 	ldw	fp,0(sp)
   235cc:	dec00204 	addi	sp,sp,8
   235d0:	f800283a 	ret

000235d4 <th_write_register>:


bool th_write_register(alt_u8 RegisterPorinter, alt_u16 Data16){
   235d4:	defffa04 	addi	sp,sp,-24
   235d8:	dfc00515 	stw	ra,20(sp)
   235dc:	df000415 	stw	fp,16(sp)
   235e0:	df000404 	addi	fp,sp,16
   235e4:	2007883a 	mov	r3,r4
   235e8:	2805883a 	mov	r2,r5
   235ec:	e0fffe05 	stb	r3,-8(fp)
   235f0:	e0bfff0d 	sth	r2,-4(fp)
	bool bPass;
	alt_u8 szData8[2];

	szData8[0] = (Data16 >> 8) & 0xFF;
   235f4:	e0bfff0b 	ldhu	r2,-4(fp)
   235f8:	1004d23a 	srli	r2,r2,8
   235fc:	e0bffd45 	stb	r2,-11(fp)
	szData8[1] = Data16 & 0xFF;
   23600:	e0bfff0b 	ldhu	r2,-4(fp)
   23604:	e0bffd85 	stb	r2,-10(fp)
	bPass = OC_I2C_Write(RH_TEMP_I2C_OPENCORES_BASE, RH_Temp_DEVICE_ADDR, RegisterPorinter, szData8, sizeof(szData8));
   23608:	e0fffe03 	ldbu	r3,-8(fp)
   2360c:	e13ffd44 	addi	r4,fp,-11
   23610:	00800084 	movi	r2,2
   23614:	d8800015 	stw	r2,0(sp)
   23618:	200f883a 	mov	r7,r4
   2361c:	180d883a 	mov	r6,r3
   23620:	01402004 	movi	r5,128
   23624:	01000134 	movhi	r4,4
   23628:	21040004 	addi	r4,r4,4096
   2362c:	002066c0 	call	2066c <OC_I2C_Write>
   23630:	e0bffd05 	stb	r2,-12(fp)

	return bPass;
   23634:	e0bffd03 	ldbu	r2,-12(fp)

}
   23638:	e037883a 	mov	sp,fp
   2363c:	dfc00117 	ldw	ra,4(sp)
   23640:	df000017 	ldw	fp,0(sp)
   23644:	dec00204 	addi	sp,sp,8
   23648:	f800283a 	ret

0002364c <th_read_register>:


bool th_read_register(alt_u8 RegisterPorinter, alt_u16 *pData16){
   2364c:	defffa04 	addi	sp,sp,-24
   23650:	dfc00515 	stw	ra,20(sp)
   23654:	df000415 	stw	fp,16(sp)
   23658:	df000404 	addi	fp,sp,16
   2365c:	2005883a 	mov	r2,r4
   23660:	e17fff15 	stw	r5,-4(fp)
   23664:	e0bffe05 	stb	r2,-8(fp)
	bool bPass;
	alt_u8 szData8[2];

	bPass = OC_I2C_Read(RH_TEMP_I2C_OPENCORES_BASE, RH_Temp_DEVICE_ADDR, RegisterPorinter, szData8, sizeof(szData8));
   23668:	e0fffe03 	ldbu	r3,-8(fp)
   2366c:	e13ffd44 	addi	r4,fp,-11
   23670:	00800084 	movi	r2,2
   23674:	d8800015 	stw	r2,0(sp)
   23678:	200f883a 	mov	r7,r4
   2367c:	180d883a 	mov	r6,r3
   23680:	01402004 	movi	r5,128
   23684:	01000134 	movhi	r4,4
   23688:	21040004 	addi	r4,r4,4096
   2368c:	002091c0 	call	2091c <OC_I2C_Read>
   23690:	e0bffd05 	stb	r2,-12(fp)
	if (bPass){
   23694:	e0bffd03 	ldbu	r2,-12(fp)
   23698:	10000a26 	beq	r2,zero,236c4 <th_read_register+0x78>
		*pData16 = (szData8[0] << 8) | szData8[1];
   2369c:	e0bffd43 	ldbu	r2,-11(fp)
   236a0:	10803fcc 	andi	r2,r2,255
   236a4:	1004923a 	slli	r2,r2,8
   236a8:	1007883a 	mov	r3,r2
   236ac:	e0bffd83 	ldbu	r2,-10(fp)
   236b0:	10803fcc 	andi	r2,r2,255
   236b4:	1884b03a 	or	r2,r3,r2
   236b8:	1007883a 	mov	r3,r2
   236bc:	e0bfff17 	ldw	r2,-4(fp)
   236c0:	10c0000d 	sth	r3,0(r2)
	}

	return bPass;
   236c4:	e0bffd03 	ldbu	r2,-12(fp)


}
   236c8:	e037883a 	mov	sp,fp
   236cc:	dfc00117 	ldw	ra,4(sp)
   236d0:	df000017 	ldw	fp,0(sp)
   236d4:	dec00204 	addi	sp,sp,8
   236d8:	f800283a 	ret

000236dc <__divsi3>:
   236dc:	20001b16 	blt	r4,zero,2374c <__divsi3+0x70>
   236e0:	000f883a 	mov	r7,zero
   236e4:	28001616 	blt	r5,zero,23740 <__divsi3+0x64>
   236e8:	200d883a 	mov	r6,r4
   236ec:	29001a2e 	bgeu	r5,r4,23758 <__divsi3+0x7c>
   236f0:	00800804 	movi	r2,32
   236f4:	00c00044 	movi	r3,1
   236f8:	00000106 	br	23700 <__divsi3+0x24>
   236fc:	10000d26 	beq	r2,zero,23734 <__divsi3+0x58>
   23700:	294b883a 	add	r5,r5,r5
   23704:	10bfffc4 	addi	r2,r2,-1
   23708:	18c7883a 	add	r3,r3,r3
   2370c:	293ffb36 	bltu	r5,r4,236fc <__alt_data_end+0xfffe42fc>
   23710:	0005883a 	mov	r2,zero
   23714:	18000726 	beq	r3,zero,23734 <__divsi3+0x58>
   23718:	0005883a 	mov	r2,zero
   2371c:	31400236 	bltu	r6,r5,23728 <__divsi3+0x4c>
   23720:	314dc83a 	sub	r6,r6,r5
   23724:	10c4b03a 	or	r2,r2,r3
   23728:	1806d07a 	srli	r3,r3,1
   2372c:	280ad07a 	srli	r5,r5,1
   23730:	183ffa1e 	bne	r3,zero,2371c <__alt_data_end+0xfffe431c>
   23734:	38000126 	beq	r7,zero,2373c <__divsi3+0x60>
   23738:	0085c83a 	sub	r2,zero,r2
   2373c:	f800283a 	ret
   23740:	014bc83a 	sub	r5,zero,r5
   23744:	39c0005c 	xori	r7,r7,1
   23748:	003fe706 	br	236e8 <__alt_data_end+0xfffe42e8>
   2374c:	0109c83a 	sub	r4,zero,r4
   23750:	01c00044 	movi	r7,1
   23754:	003fe306 	br	236e4 <__alt_data_end+0xfffe42e4>
   23758:	00c00044 	movi	r3,1
   2375c:	003fee06 	br	23718 <__alt_data_end+0xfffe4318>

00023760 <__modsi3>:
   23760:	20001716 	blt	r4,zero,237c0 <__modsi3+0x60>
   23764:	000f883a 	mov	r7,zero
   23768:	2005883a 	mov	r2,r4
   2376c:	28001216 	blt	r5,zero,237b8 <__modsi3+0x58>
   23770:	2900162e 	bgeu	r5,r4,237cc <__modsi3+0x6c>
   23774:	01800804 	movi	r6,32
   23778:	00c00044 	movi	r3,1
   2377c:	00000106 	br	23784 <__modsi3+0x24>
   23780:	30000a26 	beq	r6,zero,237ac <__modsi3+0x4c>
   23784:	294b883a 	add	r5,r5,r5
   23788:	31bfffc4 	addi	r6,r6,-1
   2378c:	18c7883a 	add	r3,r3,r3
   23790:	293ffb36 	bltu	r5,r4,23780 <__alt_data_end+0xfffe4380>
   23794:	18000526 	beq	r3,zero,237ac <__modsi3+0x4c>
   23798:	1806d07a 	srli	r3,r3,1
   2379c:	11400136 	bltu	r2,r5,237a4 <__modsi3+0x44>
   237a0:	1145c83a 	sub	r2,r2,r5
   237a4:	280ad07a 	srli	r5,r5,1
   237a8:	183ffb1e 	bne	r3,zero,23798 <__alt_data_end+0xfffe4398>
   237ac:	38000126 	beq	r7,zero,237b4 <__modsi3+0x54>
   237b0:	0085c83a 	sub	r2,zero,r2
   237b4:	f800283a 	ret
   237b8:	014bc83a 	sub	r5,zero,r5
   237bc:	003fec06 	br	23770 <__alt_data_end+0xfffe4370>
   237c0:	0109c83a 	sub	r4,zero,r4
   237c4:	01c00044 	movi	r7,1
   237c8:	003fe706 	br	23768 <__alt_data_end+0xfffe4368>
   237cc:	00c00044 	movi	r3,1
   237d0:	003ff106 	br	23798 <__alt_data_end+0xfffe4398>

000237d4 <__udivsi3>:
   237d4:	200d883a 	mov	r6,r4
   237d8:	2900152e 	bgeu	r5,r4,23830 <__udivsi3+0x5c>
   237dc:	28001416 	blt	r5,zero,23830 <__udivsi3+0x5c>
   237e0:	00800804 	movi	r2,32
   237e4:	00c00044 	movi	r3,1
   237e8:	00000206 	br	237f4 <__udivsi3+0x20>
   237ec:	10000e26 	beq	r2,zero,23828 <__udivsi3+0x54>
   237f0:	28000516 	blt	r5,zero,23808 <__udivsi3+0x34>
   237f4:	294b883a 	add	r5,r5,r5
   237f8:	10bfffc4 	addi	r2,r2,-1
   237fc:	18c7883a 	add	r3,r3,r3
   23800:	293ffa36 	bltu	r5,r4,237ec <__alt_data_end+0xfffe43ec>
   23804:	18000826 	beq	r3,zero,23828 <__udivsi3+0x54>
   23808:	0005883a 	mov	r2,zero
   2380c:	31400236 	bltu	r6,r5,23818 <__udivsi3+0x44>
   23810:	314dc83a 	sub	r6,r6,r5
   23814:	10c4b03a 	or	r2,r2,r3
   23818:	1806d07a 	srli	r3,r3,1
   2381c:	280ad07a 	srli	r5,r5,1
   23820:	183ffa1e 	bne	r3,zero,2380c <__alt_data_end+0xfffe440c>
   23824:	f800283a 	ret
   23828:	0005883a 	mov	r2,zero
   2382c:	f800283a 	ret
   23830:	00c00044 	movi	r3,1
   23834:	003ff406 	br	23808 <__alt_data_end+0xfffe4408>

00023838 <__umodsi3>:
   23838:	2005883a 	mov	r2,r4
   2383c:	2900122e 	bgeu	r5,r4,23888 <__umodsi3+0x50>
   23840:	28001116 	blt	r5,zero,23888 <__umodsi3+0x50>
   23844:	01800804 	movi	r6,32
   23848:	00c00044 	movi	r3,1
   2384c:	00000206 	br	23858 <__umodsi3+0x20>
   23850:	30000c26 	beq	r6,zero,23884 <__umodsi3+0x4c>
   23854:	28000516 	blt	r5,zero,2386c <__umodsi3+0x34>
   23858:	294b883a 	add	r5,r5,r5
   2385c:	31bfffc4 	addi	r6,r6,-1
   23860:	18c7883a 	add	r3,r3,r3
   23864:	293ffa36 	bltu	r5,r4,23850 <__alt_data_end+0xfffe4450>
   23868:	18000626 	beq	r3,zero,23884 <__umodsi3+0x4c>
   2386c:	1806d07a 	srli	r3,r3,1
   23870:	11400136 	bltu	r2,r5,23878 <__umodsi3+0x40>
   23874:	1145c83a 	sub	r2,r2,r5
   23878:	280ad07a 	srli	r5,r5,1
   2387c:	183ffb1e 	bne	r3,zero,2386c <__alt_data_end+0xfffe446c>
   23880:	f800283a 	ret
   23884:	f800283a 	ret
   23888:	00c00044 	movi	r3,1
   2388c:	003ff706 	br	2386c <__alt_data_end+0xfffe446c>

00023890 <__addsf3>:
   23890:	defffc04 	addi	sp,sp,-16
   23894:	2004d7fa 	srli	r2,r4,31
   23898:	280cd5fa 	srli	r6,r5,23
   2389c:	dc000015 	stw	r16,0(sp)
   238a0:	00c02034 	movhi	r3,128
   238a4:	2020d5fa 	srli	r16,r4,23
   238a8:	280ed7fa 	srli	r7,r5,31
   238ac:	18ffffc4 	addi	r3,r3,-1
   238b0:	dc400115 	stw	r17,4(sp)
   238b4:	1908703a 	and	r4,r3,r4
   238b8:	194a703a 	and	r5,r3,r5
   238bc:	dfc00315 	stw	ra,12(sp)
   238c0:	dc800215 	stw	r18,8(sp)
   238c4:	14403fcc 	andi	r17,r2,255
   238c8:	84003fcc 	andi	r16,r16,255
   238cc:	200890fa 	slli	r4,r4,3
   238d0:	31803fcc 	andi	r6,r6,255
   238d4:	280a90fa 	slli	r5,r5,3
   238d8:	89c05026 	beq	r17,r7,23a1c <__addsf3+0x18c>
   238dc:	8185c83a 	sub	r2,r16,r6
   238e0:	00807a0e 	bge	zero,r2,23acc <__addsf3+0x23c>
   238e4:	30001e1e 	bne	r6,zero,23960 <__addsf3+0xd0>
   238e8:	28006d1e 	bne	r5,zero,23aa0 <__addsf3+0x210>
   238ec:	208001cc 	andi	r2,r4,7
   238f0:	10000426 	beq	r2,zero,23904 <__addsf3+0x74>
   238f4:	208003cc 	andi	r2,r4,15
   238f8:	00c00104 	movi	r3,4
   238fc:	10c00126 	beq	r2,r3,23904 <__addsf3+0x74>
   23900:	20c9883a 	add	r4,r4,r3
   23904:	2081002c 	andhi	r2,r4,1024
   23908:	10003926 	beq	r2,zero,239f0 <__addsf3+0x160>
   2390c:	84000044 	addi	r16,r16,1
   23910:	00803fc4 	movi	r2,255
   23914:	80807826 	beq	r16,r2,23af8 <__addsf3+0x268>
   23918:	200891ba 	slli	r4,r4,6
   2391c:	8805883a 	mov	r2,r17
   23920:	2008d27a 	srli	r4,r4,9
   23924:	84003fcc 	andi	r16,r16,255
   23928:	800695fa 	slli	r3,r16,23
   2392c:	10803fcc 	andi	r2,r2,255
   23930:	04002034 	movhi	r16,128
   23934:	843fffc4 	addi	r16,r16,-1
   23938:	100497fa 	slli	r2,r2,31
   2393c:	2408703a 	and	r4,r4,r16
   23940:	20e0b03a 	or	r16,r4,r3
   23944:	8084b03a 	or	r2,r16,r2
   23948:	dfc00317 	ldw	ra,12(sp)
   2394c:	dc800217 	ldw	r18,8(sp)
   23950:	dc400117 	ldw	r17,4(sp)
   23954:	dc000017 	ldw	r16,0(sp)
   23958:	dec00404 	addi	sp,sp,16
   2395c:	f800283a 	ret
   23960:	00c03fc4 	movi	r3,255
   23964:	80ffe126 	beq	r16,r3,238ec <__alt_data_end+0xfffe44ec>
   23968:	29410034 	orhi	r5,r5,1024
   2396c:	00c006c4 	movi	r3,27
   23970:	18807516 	blt	r3,r2,23b48 <__addsf3+0x2b8>
   23974:	00c00804 	movi	r3,32
   23978:	1887c83a 	sub	r3,r3,r2
   2397c:	28c6983a 	sll	r3,r5,r3
   23980:	288ad83a 	srl	r5,r5,r2
   23984:	1804c03a 	cmpne	r2,r3,zero
   23988:	288ab03a 	or	r5,r5,r2
   2398c:	2149c83a 	sub	r4,r4,r5
   23990:	2081002c 	andhi	r2,r4,1024
   23994:	10001426 	beq	r2,zero,239e8 <__addsf3+0x158>
   23998:	04810034 	movhi	r18,1024
   2399c:	94bfffc4 	addi	r18,r18,-1
   239a0:	24a4703a 	and	r18,r4,r18
   239a4:	9009883a 	mov	r4,r18
   239a8:	00270ec0 	call	270ec <__clzsi2>
   239ac:	10bffec4 	addi	r2,r2,-5
   239b0:	90a4983a 	sll	r18,r18,r2
   239b4:	14005416 	blt	r2,r16,23b08 <__addsf3+0x278>
   239b8:	1405c83a 	sub	r2,r2,r16
   239bc:	11000044 	addi	r4,r2,1
   239c0:	00800804 	movi	r2,32
   239c4:	1105c83a 	sub	r2,r2,r4
   239c8:	9084983a 	sll	r2,r18,r2
   239cc:	9124d83a 	srl	r18,r18,r4
   239d0:	0021883a 	mov	r16,zero
   239d4:	1008c03a 	cmpne	r4,r2,zero
   239d8:	9108b03a 	or	r4,r18,r4
   239dc:	003fc306 	br	238ec <__alt_data_end+0xfffe44ec>
   239e0:	1000db26 	beq	r2,zero,23d50 <__addsf3+0x4c0>
   239e4:	1009883a 	mov	r4,r2
   239e8:	208001cc 	andi	r2,r4,7
   239ec:	103fc11e 	bne	r2,zero,238f4 <__alt_data_end+0xfffe44f4>
   239f0:	2006d0fa 	srli	r3,r4,3
   239f4:	01003fc4 	movi	r4,255
   239f8:	8805883a 	mov	r2,r17
   239fc:	8100241e 	bne	r16,r4,23a90 <__addsf3+0x200>
   23a00:	18006e26 	beq	r3,zero,23bbc <__addsf3+0x32c>
   23a04:	19001034 	orhi	r4,r3,64
   23a08:	00c02034 	movhi	r3,128
   23a0c:	18ffffc4 	addi	r3,r3,-1
   23a10:	043fffc4 	movi	r16,-1
   23a14:	20c8703a 	and	r4,r4,r3
   23a18:	003fc206 	br	23924 <__alt_data_end+0xfffe4524>
   23a1c:	8187c83a 	sub	r3,r16,r6
   23a20:	00c03e0e 	bge	zero,r3,23b1c <__addsf3+0x28c>
   23a24:	30002326 	beq	r6,zero,23ab4 <__addsf3+0x224>
   23a28:	01803fc4 	movi	r6,255
   23a2c:	81bfaf26 	beq	r16,r6,238ec <__alt_data_end+0xfffe44ec>
   23a30:	29410034 	orhi	r5,r5,1024
   23a34:	018006c4 	movi	r6,27
   23a38:	30c07416 	blt	r6,r3,23c0c <__addsf3+0x37c>
   23a3c:	01800804 	movi	r6,32
   23a40:	30cdc83a 	sub	r6,r6,r3
   23a44:	298c983a 	sll	r6,r5,r6
   23a48:	28cad83a 	srl	r5,r5,r3
   23a4c:	3006c03a 	cmpne	r3,r6,zero
   23a50:	28cab03a 	or	r5,r5,r3
   23a54:	2149883a 	add	r4,r4,r5
   23a58:	20c1002c 	andhi	r3,r4,1024
   23a5c:	183fe226 	beq	r3,zero,239e8 <__alt_data_end+0xfffe45e8>
   23a60:	84000044 	addi	r16,r16,1
   23a64:	00c03fc4 	movi	r3,255
   23a68:	80c05426 	beq	r16,r3,23bbc <__addsf3+0x32c>
   23a6c:	00bf0034 	movhi	r2,64512
   23a70:	10bfffc4 	addi	r2,r2,-1
   23a74:	20c0004c 	andi	r3,r4,1
   23a78:	2088703a 	and	r4,r4,r2
   23a7c:	2008d07a 	srli	r4,r4,1
   23a80:	20c8b03a 	or	r4,r4,r3
   23a84:	003f9906 	br	238ec <__alt_data_end+0xfffe44ec>
   23a88:	0007883a 	mov	r3,zero
   23a8c:	0005883a 	mov	r2,zero
   23a90:	01002034 	movhi	r4,128
   23a94:	213fffc4 	addi	r4,r4,-1
   23a98:	1908703a 	and	r4,r3,r4
   23a9c:	003fa106 	br	23924 <__alt_data_end+0xfffe4524>
   23aa0:	10bfffc4 	addi	r2,r2,-1
   23aa4:	103fb926 	beq	r2,zero,2398c <__alt_data_end+0xfffe458c>
   23aa8:	00c03fc4 	movi	r3,255
   23aac:	80ffaf1e 	bne	r16,r3,2396c <__alt_data_end+0xfffe456c>
   23ab0:	003f8e06 	br	238ec <__alt_data_end+0xfffe44ec>
   23ab4:	283f8d26 	beq	r5,zero,238ec <__alt_data_end+0xfffe44ec>
   23ab8:	18ffffc4 	addi	r3,r3,-1
   23abc:	183fe526 	beq	r3,zero,23a54 <__alt_data_end+0xfffe4654>
   23ac0:	01803fc4 	movi	r6,255
   23ac4:	81bfdb1e 	bne	r16,r6,23a34 <__alt_data_end+0xfffe4634>
   23ac8:	003f8806 	br	238ec <__alt_data_end+0xfffe44ec>
   23acc:	1000201e 	bne	r2,zero,23b50 <__addsf3+0x2c0>
   23ad0:	80800044 	addi	r2,r16,1
   23ad4:	10803fcc 	andi	r2,r2,255
   23ad8:	01800044 	movi	r6,1
   23adc:	3080450e 	bge	r6,r2,23bf4 <__addsf3+0x364>
   23ae0:	2165c83a 	sub	r18,r4,r5
   23ae4:	90c1002c 	andhi	r3,r18,1024
   23ae8:	18002b26 	beq	r3,zero,23b98 <__addsf3+0x308>
   23aec:	2925c83a 	sub	r18,r5,r4
   23af0:	3823883a 	mov	r17,r7
   23af4:	003fab06 	br	239a4 <__alt_data_end+0xfffe45a4>
   23af8:	8805883a 	mov	r2,r17
   23afc:	043fffc4 	movi	r16,-1
   23b00:	0009883a 	mov	r4,zero
   23b04:	003f8706 	br	23924 <__alt_data_end+0xfffe4524>
   23b08:	013f0034 	movhi	r4,64512
   23b0c:	213fffc4 	addi	r4,r4,-1
   23b10:	80a1c83a 	sub	r16,r16,r2
   23b14:	9108703a 	and	r4,r18,r4
   23b18:	003f7406 	br	238ec <__alt_data_end+0xfffe44ec>
   23b1c:	1800411e 	bne	r3,zero,23c24 <__addsf3+0x394>
   23b20:	80c00044 	addi	r3,r16,1
   23b24:	19c03fcc 	andi	r7,r3,255
   23b28:	01800044 	movi	r6,1
   23b2c:	31c0260e 	bge	r6,r7,23bc8 <__addsf3+0x338>
   23b30:	01803fc4 	movi	r6,255
   23b34:	19802126 	beq	r3,r6,23bbc <__addsf3+0x32c>
   23b38:	2149883a 	add	r4,r4,r5
   23b3c:	2008d07a 	srli	r4,r4,1
   23b40:	1821883a 	mov	r16,r3
   23b44:	003f6906 	br	238ec <__alt_data_end+0xfffe44ec>
   23b48:	01400044 	movi	r5,1
   23b4c:	003f8f06 	br	2398c <__alt_data_end+0xfffe458c>
   23b50:	8000151e 	bne	r16,zero,23ba8 <__addsf3+0x318>
   23b54:	20002f26 	beq	r4,zero,23c14 <__addsf3+0x384>
   23b58:	0084303a 	nor	r2,zero,r2
   23b5c:	10000a26 	beq	r2,zero,23b88 <__addsf3+0x2f8>
   23b60:	00c03fc4 	movi	r3,255
   23b64:	30c02b26 	beq	r6,r3,23c14 <__addsf3+0x384>
   23b68:	00c006c4 	movi	r3,27
   23b6c:	18806d16 	blt	r3,r2,23d24 <__addsf3+0x494>
   23b70:	00c00804 	movi	r3,32
   23b74:	1887c83a 	sub	r3,r3,r2
   23b78:	20c6983a 	sll	r3,r4,r3
   23b7c:	2084d83a 	srl	r2,r4,r2
   23b80:	1808c03a 	cmpne	r4,r3,zero
   23b84:	1108b03a 	or	r4,r2,r4
   23b88:	2909c83a 	sub	r4,r5,r4
   23b8c:	3021883a 	mov	r16,r6
   23b90:	3823883a 	mov	r17,r7
   23b94:	003f7e06 	br	23990 <__alt_data_end+0xfffe4590>
   23b98:	903f821e 	bne	r18,zero,239a4 <__alt_data_end+0xfffe45a4>
   23b9c:	0005883a 	mov	r2,zero
   23ba0:	0021883a 	mov	r16,zero
   23ba4:	003fba06 	br	23a90 <__alt_data_end+0xfffe4690>
   23ba8:	00c03fc4 	movi	r3,255
   23bac:	30c01926 	beq	r6,r3,23c14 <__addsf3+0x384>
   23bb0:	0085c83a 	sub	r2,zero,r2
   23bb4:	21010034 	orhi	r4,r4,1024
   23bb8:	003feb06 	br	23b68 <__alt_data_end+0xfffe4768>
   23bbc:	043fffc4 	movi	r16,-1
   23bc0:	0009883a 	mov	r4,zero
   23bc4:	003f5706 	br	23924 <__alt_data_end+0xfffe4524>
   23bc8:	80004a1e 	bne	r16,zero,23cf4 <__addsf3+0x464>
   23bcc:	20005926 	beq	r4,zero,23d34 <__addsf3+0x4a4>
   23bd0:	283f4626 	beq	r5,zero,238ec <__alt_data_end+0xfffe44ec>
   23bd4:	2149883a 	add	r4,r4,r5
   23bd8:	2081002c 	andhi	r2,r4,1024
   23bdc:	103f8226 	beq	r2,zero,239e8 <__alt_data_end+0xfffe45e8>
   23be0:	00bf0034 	movhi	r2,64512
   23be4:	10bfffc4 	addi	r2,r2,-1
   23be8:	3021883a 	mov	r16,r6
   23bec:	2088703a 	and	r4,r4,r2
   23bf0:	003f3e06 	br	238ec <__alt_data_end+0xfffe44ec>
   23bf4:	8000121e 	bne	r16,zero,23c40 <__addsf3+0x3b0>
   23bf8:	2000261e 	bne	r4,zero,23c94 <__addsf3+0x404>
   23bfc:	283fa226 	beq	r5,zero,23a88 <__alt_data_end+0xfffe4688>
   23c00:	2809883a 	mov	r4,r5
   23c04:	3823883a 	mov	r17,r7
   23c08:	003f3806 	br	238ec <__alt_data_end+0xfffe44ec>
   23c0c:	01400044 	movi	r5,1
   23c10:	003f9006 	br	23a54 <__alt_data_end+0xfffe4654>
   23c14:	2809883a 	mov	r4,r5
   23c18:	3021883a 	mov	r16,r6
   23c1c:	3823883a 	mov	r17,r7
   23c20:	003f3206 	br	238ec <__alt_data_end+0xfffe44ec>
   23c24:	80000c1e 	bne	r16,zero,23c58 <__addsf3+0x3c8>
   23c28:	20002f26 	beq	r4,zero,23ce8 <__addsf3+0x458>
   23c2c:	00c6303a 	nor	r3,zero,r3
   23c30:	18002b1e 	bne	r3,zero,23ce0 <__addsf3+0x450>
   23c34:	2149883a 	add	r4,r4,r5
   23c38:	3021883a 	mov	r16,r6
   23c3c:	003f8606 	br	23a58 <__alt_data_end+0xfffe4658>
   23c40:	20001b1e 	bne	r4,zero,23cb0 <__addsf3+0x420>
   23c44:	28003926 	beq	r5,zero,23d2c <__addsf3+0x49c>
   23c48:	2809883a 	mov	r4,r5
   23c4c:	3823883a 	mov	r17,r7
   23c50:	04003fc4 	movi	r16,255
   23c54:	003f2506 	br	238ec <__alt_data_end+0xfffe44ec>
   23c58:	01c03fc4 	movi	r7,255
   23c5c:	31c02226 	beq	r6,r7,23ce8 <__addsf3+0x458>
   23c60:	00c7c83a 	sub	r3,zero,r3
   23c64:	21010034 	orhi	r4,r4,1024
   23c68:	01c006c4 	movi	r7,27
   23c6c:	38c03616 	blt	r7,r3,23d48 <__addsf3+0x4b8>
   23c70:	01c00804 	movi	r7,32
   23c74:	38cfc83a 	sub	r7,r7,r3
   23c78:	21ce983a 	sll	r7,r4,r7
   23c7c:	20c6d83a 	srl	r3,r4,r3
   23c80:	3808c03a 	cmpne	r4,r7,zero
   23c84:	1906b03a 	or	r3,r3,r4
   23c88:	1949883a 	add	r4,r3,r5
   23c8c:	3021883a 	mov	r16,r6
   23c90:	003f7106 	br	23a58 <__alt_data_end+0xfffe4658>
   23c94:	283f1526 	beq	r5,zero,238ec <__alt_data_end+0xfffe44ec>
   23c98:	2145c83a 	sub	r2,r4,r5
   23c9c:	10c1002c 	andhi	r3,r2,1024
   23ca0:	183f4f26 	beq	r3,zero,239e0 <__alt_data_end+0xfffe45e0>
   23ca4:	2909c83a 	sub	r4,r5,r4
   23ca8:	3823883a 	mov	r17,r7
   23cac:	003f0f06 	br	238ec <__alt_data_end+0xfffe44ec>
   23cb0:	28001a26 	beq	r5,zero,23d1c <__addsf3+0x48c>
   23cb4:	2008d0fa 	srli	r4,r4,3
   23cb8:	2080102c 	andhi	r2,r4,64
   23cbc:	10000526 	beq	r2,zero,23cd4 <__addsf3+0x444>
   23cc0:	280ad0fa 	srli	r5,r5,3
   23cc4:	2880102c 	andhi	r2,r5,64
   23cc8:	1000021e 	bne	r2,zero,23cd4 <__addsf3+0x444>
   23ccc:	2809883a 	mov	r4,r5
   23cd0:	3823883a 	mov	r17,r7
   23cd4:	200890fa 	slli	r4,r4,3
   23cd8:	04003fc4 	movi	r16,255
   23cdc:	003f0306 	br	238ec <__alt_data_end+0xfffe44ec>
   23ce0:	01c03fc4 	movi	r7,255
   23ce4:	31ffe01e 	bne	r6,r7,23c68 <__alt_data_end+0xfffe4868>
   23ce8:	2809883a 	mov	r4,r5
   23cec:	3021883a 	mov	r16,r6
   23cf0:	003efe06 	br	238ec <__alt_data_end+0xfffe44ec>
   23cf4:	20001126 	beq	r4,zero,23d3c <__addsf3+0x4ac>
   23cf8:	28000826 	beq	r5,zero,23d1c <__addsf3+0x48c>
   23cfc:	2008d0fa 	srli	r4,r4,3
   23d00:	2080102c 	andhi	r2,r4,64
   23d04:	103ff326 	beq	r2,zero,23cd4 <__alt_data_end+0xfffe48d4>
   23d08:	280ad0fa 	srli	r5,r5,3
   23d0c:	2880102c 	andhi	r2,r5,64
   23d10:	103ff01e 	bne	r2,zero,23cd4 <__alt_data_end+0xfffe48d4>
   23d14:	2809883a 	mov	r4,r5
   23d18:	003fee06 	br	23cd4 <__alt_data_end+0xfffe48d4>
   23d1c:	04003fc4 	movi	r16,255
   23d20:	003ef206 	br	238ec <__alt_data_end+0xfffe44ec>
   23d24:	01000044 	movi	r4,1
   23d28:	003f9706 	br	23b88 <__alt_data_end+0xfffe4788>
   23d2c:	0005883a 	mov	r2,zero
   23d30:	003f3406 	br	23a04 <__alt_data_end+0xfffe4604>
   23d34:	2809883a 	mov	r4,r5
   23d38:	003eec06 	br	238ec <__alt_data_end+0xfffe44ec>
   23d3c:	2809883a 	mov	r4,r5
   23d40:	04003fc4 	movi	r16,255
   23d44:	003ee906 	br	238ec <__alt_data_end+0xfffe44ec>
   23d48:	00c00044 	movi	r3,1
   23d4c:	003fce06 	br	23c88 <__alt_data_end+0xfffe4888>
   23d50:	0005883a 	mov	r2,zero
   23d54:	003f4e06 	br	23a90 <__alt_data_end+0xfffe4690>

00023d58 <__divsf3>:
   23d58:	defff504 	addi	sp,sp,-44
   23d5c:	200cd5fa 	srli	r6,r4,23
   23d60:	dcc00415 	stw	r19,16(sp)
   23d64:	2026d7fa 	srli	r19,r4,31
   23d68:	00c02034 	movhi	r3,128
   23d6c:	dd800715 	stw	r22,28(sp)
   23d70:	dd000515 	stw	r20,20(sp)
   23d74:	dc800315 	stw	r18,12(sp)
   23d78:	18ffffc4 	addi	r3,r3,-1
   23d7c:	dfc00a15 	stw	ra,40(sp)
   23d80:	df000915 	stw	fp,36(sp)
   23d84:	ddc00815 	stw	r23,32(sp)
   23d88:	dd400615 	stw	r21,24(sp)
   23d8c:	dc400215 	stw	r17,8(sp)
   23d90:	dc000115 	stw	r16,4(sp)
   23d94:	35003fcc 	andi	r20,r6,255
   23d98:	1924703a 	and	r18,r3,r4
   23d9c:	9d803fcc 	andi	r22,r19,255
   23da0:	a0005226 	beq	r20,zero,23eec <__divsf3+0x194>
   23da4:	00803fc4 	movi	r2,255
   23da8:	a0802e26 	beq	r20,r2,23e64 <__divsf3+0x10c>
   23dac:	91002034 	orhi	r4,r18,128
   23db0:	202490fa 	slli	r18,r4,3
   23db4:	a53fe044 	addi	r20,r20,-127
   23db8:	0021883a 	mov	r16,zero
   23dbc:	002f883a 	mov	r23,zero
   23dc0:	280cd5fa 	srli	r6,r5,23
   23dc4:	282ad7fa 	srli	r21,r5,31
   23dc8:	00c02034 	movhi	r3,128
   23dcc:	18ffffc4 	addi	r3,r3,-1
   23dd0:	31803fcc 	andi	r6,r6,255
   23dd4:	1962703a 	and	r17,r3,r5
   23dd8:	af003fcc 	andi	fp,r21,255
   23ddc:	30004a26 	beq	r6,zero,23f08 <__divsf3+0x1b0>
   23de0:	00803fc4 	movi	r2,255
   23de4:	30804526 	beq	r6,r2,23efc <__divsf3+0x1a4>
   23de8:	89402034 	orhi	r5,r17,128
   23dec:	282290fa 	slli	r17,r5,3
   23df0:	31bfe044 	addi	r6,r6,-127
   23df4:	000b883a 	mov	r5,zero
   23df8:	2c20b03a 	or	r16,r5,r16
   23dfc:	802090ba 	slli	r16,r16,2
   23e00:	008000b4 	movhi	r2,2
   23e04:	108f8904 	addi	r2,r2,15908
   23e08:	80a1883a 	add	r16,r16,r2
   23e0c:	81000017 	ldw	r4,0(r16)
   23e10:	9d46f03a 	xor	r3,r19,r21
   23e14:	180f883a 	mov	r7,r3
   23e18:	18803fcc 	andi	r2,r3,255
   23e1c:	a18dc83a 	sub	r6,r20,r6
   23e20:	2000683a 	jmp	r4
   23e24:	00024008 	cmpgei	zero,zero,2304
   23e28:	00023e8c 	andi	zero,zero,2298
   23e2c:	00023ffc 	xorhi	zero,zero,2303
   23e30:	00023e78 	rdprs	zero,zero,2297
   23e34:	00023ffc 	xorhi	zero,zero,2303
   23e38:	00023fd4 	movui	zero,2303
   23e3c:	00023ffc 	xorhi	zero,zero,2303
   23e40:	00023e78 	rdprs	zero,zero,2297
   23e44:	00023e8c 	andi	zero,zero,2298
   23e48:	00023e8c 	andi	zero,zero,2298
   23e4c:	00023fd4 	movui	zero,2303
   23e50:	00023e78 	rdprs	zero,zero,2297
   23e54:	000240e8 	cmpgeui	zero,zero,2307
   23e58:	000240e8 	cmpgeui	zero,zero,2307
   23e5c:	000240e8 	cmpgeui	zero,zero,2307
   23e60:	0002409c 	xori	zero,zero,2306
   23e64:	9000581e 	bne	r18,zero,23fc8 <__divsf3+0x270>
   23e68:	04000204 	movi	r16,8
   23e6c:	05c00084 	movi	r23,2
   23e70:	003fd306 	br	23dc0 <__alt_data_end+0xfffe49c0>
   23e74:	0023883a 	mov	r17,zero
   23e78:	e02d883a 	mov	r22,fp
   23e7c:	282f883a 	mov	r23,r5
   23e80:	00800084 	movi	r2,2
   23e84:	b8808f1e 	bne	r23,r2,240c4 <__divsf3+0x36c>
   23e88:	b005883a 	mov	r2,r22
   23e8c:	11c0004c 	andi	r7,r2,1
   23e90:	013fffc4 	movi	r4,-1
   23e94:	000d883a 	mov	r6,zero
   23e98:	21003fcc 	andi	r4,r4,255
   23e9c:	200895fa 	slli	r4,r4,23
   23ea0:	38803fcc 	andi	r2,r7,255
   23ea4:	00c02034 	movhi	r3,128
   23ea8:	100497fa 	slli	r2,r2,31
   23eac:	18ffffc4 	addi	r3,r3,-1
   23eb0:	30c6703a 	and	r3,r6,r3
   23eb4:	1906b03a 	or	r3,r3,r4
   23eb8:	1884b03a 	or	r2,r3,r2
   23ebc:	dfc00a17 	ldw	ra,40(sp)
   23ec0:	df000917 	ldw	fp,36(sp)
   23ec4:	ddc00817 	ldw	r23,32(sp)
   23ec8:	dd800717 	ldw	r22,28(sp)
   23ecc:	dd400617 	ldw	r21,24(sp)
   23ed0:	dd000517 	ldw	r20,20(sp)
   23ed4:	dcc00417 	ldw	r19,16(sp)
   23ed8:	dc800317 	ldw	r18,12(sp)
   23edc:	dc400217 	ldw	r17,8(sp)
   23ee0:	dc000117 	ldw	r16,4(sp)
   23ee4:	dec00b04 	addi	sp,sp,44
   23ee8:	f800283a 	ret
   23eec:	90002b1e 	bne	r18,zero,23f9c <__divsf3+0x244>
   23ef0:	04000104 	movi	r16,4
   23ef4:	05c00044 	movi	r23,1
   23ef8:	003fb106 	br	23dc0 <__alt_data_end+0xfffe49c0>
   23efc:	8800251e 	bne	r17,zero,23f94 <__divsf3+0x23c>
   23f00:	01400084 	movi	r5,2
   23f04:	00000206 	br	23f10 <__divsf3+0x1b8>
   23f08:	88001a1e 	bne	r17,zero,23f74 <__divsf3+0x21c>
   23f0c:	01400044 	movi	r5,1
   23f10:	8160b03a 	or	r16,r16,r5
   23f14:	802090ba 	slli	r16,r16,2
   23f18:	00c000b4 	movhi	r3,2
   23f1c:	18cfcd04 	addi	r3,r3,16180
   23f20:	80e1883a 	add	r16,r16,r3
   23f24:	80c00017 	ldw	r3,0(r16)
   23f28:	9d44f03a 	xor	r2,r19,r21
   23f2c:	a18dc83a 	sub	r6,r20,r6
   23f30:	1800683a 	jmp	r3
   23f34:	00023e8c 	andi	zero,zero,2298
   23f38:	00023e8c 	andi	zero,zero,2298
   23f3c:	000240d8 	cmpnei	zero,zero,2307
   23f40:	00023e74 	movhi	zero,2297
   23f44:	000240d8 	cmpnei	zero,zero,2307
   23f48:	00023fd4 	movui	zero,2303
   23f4c:	000240d8 	cmpnei	zero,zero,2307
   23f50:	00023e74 	movhi	zero,2297
   23f54:	00023e8c 	andi	zero,zero,2298
   23f58:	00023e8c 	andi	zero,zero,2298
   23f5c:	00023fd4 	movui	zero,2303
   23f60:	00023e74 	movhi	zero,2297
   23f64:	000240e8 	cmpgeui	zero,zero,2307
   23f68:	000240e8 	cmpgeui	zero,zero,2307
   23f6c:	000240e8 	cmpgeui	zero,zero,2307
   23f70:	00024100 	call	2410 <__alt_mem_onchip_memory2-0x1dbf0>
   23f74:	8809883a 	mov	r4,r17
   23f78:	00270ec0 	call	270ec <__clzsi2>
   23f7c:	10fffec4 	addi	r3,r2,-5
   23f80:	10801d84 	addi	r2,r2,118
   23f84:	88e2983a 	sll	r17,r17,r3
   23f88:	008dc83a 	sub	r6,zero,r2
   23f8c:	000b883a 	mov	r5,zero
   23f90:	003f9906 	br	23df8 <__alt_data_end+0xfffe49f8>
   23f94:	014000c4 	movi	r5,3
   23f98:	003f9706 	br	23df8 <__alt_data_end+0xfffe49f8>
   23f9c:	9009883a 	mov	r4,r18
   23fa0:	d9400015 	stw	r5,0(sp)
   23fa4:	00270ec0 	call	270ec <__clzsi2>
   23fa8:	10fffec4 	addi	r3,r2,-5
   23fac:	11801d84 	addi	r6,r2,118
   23fb0:	90e4983a 	sll	r18,r18,r3
   23fb4:	01a9c83a 	sub	r20,zero,r6
   23fb8:	0021883a 	mov	r16,zero
   23fbc:	002f883a 	mov	r23,zero
   23fc0:	d9400017 	ldw	r5,0(sp)
   23fc4:	003f7e06 	br	23dc0 <__alt_data_end+0xfffe49c0>
   23fc8:	04000304 	movi	r16,12
   23fcc:	05c000c4 	movi	r23,3
   23fd0:	003f7b06 	br	23dc0 <__alt_data_end+0xfffe49c0>
   23fd4:	01802034 	movhi	r6,128
   23fd8:	000f883a 	mov	r7,zero
   23fdc:	31bfffc4 	addi	r6,r6,-1
   23fe0:	013fffc4 	movi	r4,-1
   23fe4:	003fac06 	br	23e98 <__alt_data_end+0xfffe4a98>
   23fe8:	01400044 	movi	r5,1
   23fec:	2909c83a 	sub	r4,r5,r4
   23ff0:	00c006c4 	movi	r3,27
   23ff4:	19004b0e 	bge	r3,r4,24124 <__divsf3+0x3cc>
   23ff8:	114e703a 	and	r7,r2,r5
   23ffc:	0009883a 	mov	r4,zero
   24000:	000d883a 	mov	r6,zero
   24004:	003fa406 	br	23e98 <__alt_data_end+0xfffe4a98>
   24008:	9006917a 	slli	r3,r18,5
   2400c:	8822917a 	slli	r17,r17,5
   24010:	1c40372e 	bgeu	r3,r17,240f0 <__divsf3+0x398>
   24014:	31bfffc4 	addi	r6,r6,-1
   24018:	010006c4 	movi	r4,27
   2401c:	000b883a 	mov	r5,zero
   24020:	180f883a 	mov	r7,r3
   24024:	294b883a 	add	r5,r5,r5
   24028:	18c7883a 	add	r3,r3,r3
   2402c:	38000116 	blt	r7,zero,24034 <__divsf3+0x2dc>
   24030:	1c400236 	bltu	r3,r17,2403c <__divsf3+0x2e4>
   24034:	1c47c83a 	sub	r3,r3,r17
   24038:	29400054 	ori	r5,r5,1
   2403c:	213fffc4 	addi	r4,r4,-1
   24040:	203ff71e 	bne	r4,zero,24020 <__alt_data_end+0xfffe4c20>
   24044:	1806c03a 	cmpne	r3,r3,zero
   24048:	1962b03a 	or	r17,r3,r5
   2404c:	31001fc4 	addi	r4,r6,127
   24050:	013fe50e 	bge	zero,r4,23fe8 <__alt_data_end+0xfffe4be8>
   24054:	88c001cc 	andi	r3,r17,7
   24058:	18000426 	beq	r3,zero,2406c <__divsf3+0x314>
   2405c:	88c003cc 	andi	r3,r17,15
   24060:	01400104 	movi	r5,4
   24064:	19400126 	beq	r3,r5,2406c <__divsf3+0x314>
   24068:	8963883a 	add	r17,r17,r5
   2406c:	88c2002c 	andhi	r3,r17,2048
   24070:	18000426 	beq	r3,zero,24084 <__divsf3+0x32c>
   24074:	00fe0034 	movhi	r3,63488
   24078:	18ffffc4 	addi	r3,r3,-1
   2407c:	31002004 	addi	r4,r6,128
   24080:	88e2703a 	and	r17,r17,r3
   24084:	00c03f84 	movi	r3,254
   24088:	193f8016 	blt	r3,r4,23e8c <__alt_data_end+0xfffe4a8c>
   2408c:	880c91ba 	slli	r6,r17,6
   24090:	11c0004c 	andi	r7,r2,1
   24094:	300cd27a 	srli	r6,r6,9
   24098:	003f7f06 	br	23e98 <__alt_data_end+0xfffe4a98>
   2409c:	9080102c 	andhi	r2,r18,64
   240a0:	10000226 	beq	r2,zero,240ac <__divsf3+0x354>
   240a4:	8880102c 	andhi	r2,r17,64
   240a8:	10001826 	beq	r2,zero,2410c <__divsf3+0x3b4>
   240ac:	00802034 	movhi	r2,128
   240b0:	91801034 	orhi	r6,r18,64
   240b4:	10bfffc4 	addi	r2,r2,-1
   240b8:	980f883a 	mov	r7,r19
   240bc:	308c703a 	and	r6,r6,r2
   240c0:	003fc706 	br	23fe0 <__alt_data_end+0xfffe4be0>
   240c4:	008000c4 	movi	r2,3
   240c8:	b8802d26 	beq	r23,r2,24180 <__divsf3+0x428>
   240cc:	00c00044 	movi	r3,1
   240d0:	b005883a 	mov	r2,r22
   240d4:	b8ffdd1e 	bne	r23,r3,2404c <__alt_data_end+0xfffe4c4c>
   240d8:	11c0004c 	andi	r7,r2,1
   240dc:	0009883a 	mov	r4,zero
   240e0:	000d883a 	mov	r6,zero
   240e4:	003f6c06 	br	23e98 <__alt_data_end+0xfffe4a98>
   240e8:	9023883a 	mov	r17,r18
   240ec:	003f6406 	br	23e80 <__alt_data_end+0xfffe4a80>
   240f0:	1c47c83a 	sub	r3,r3,r17
   240f4:	01000684 	movi	r4,26
   240f8:	01400044 	movi	r5,1
   240fc:	003fc806 	br	24020 <__alt_data_end+0xfffe4c20>
   24100:	9080102c 	andhi	r2,r18,64
   24104:	103fe926 	beq	r2,zero,240ac <__alt_data_end+0xfffe4cac>
   24108:	0023883a 	mov	r17,zero
   2410c:	00802034 	movhi	r2,128
   24110:	89801034 	orhi	r6,r17,64
   24114:	10bfffc4 	addi	r2,r2,-1
   24118:	a80f883a 	mov	r7,r21
   2411c:	308c703a 	and	r6,r6,r2
   24120:	003faf06 	br	23fe0 <__alt_data_end+0xfffe4be0>
   24124:	01c00804 	movi	r7,32
   24128:	390fc83a 	sub	r7,r7,r4
   2412c:	89ce983a 	sll	r7,r17,r7
   24130:	890ad83a 	srl	r5,r17,r4
   24134:	380ec03a 	cmpne	r7,r7,zero
   24138:	29cab03a 	or	r5,r5,r7
   2413c:	28c001cc 	andi	r3,r5,7
   24140:	18000426 	beq	r3,zero,24154 <__divsf3+0x3fc>
   24144:	28c003cc 	andi	r3,r5,15
   24148:	01000104 	movi	r4,4
   2414c:	19000126 	beq	r3,r4,24154 <__divsf3+0x3fc>
   24150:	290b883a 	add	r5,r5,r4
   24154:	28c1002c 	andhi	r3,r5,1024
   24158:	18000426 	beq	r3,zero,2416c <__divsf3+0x414>
   2415c:	11c0004c 	andi	r7,r2,1
   24160:	01000044 	movi	r4,1
   24164:	000d883a 	mov	r6,zero
   24168:	003f4b06 	br	23e98 <__alt_data_end+0xfffe4a98>
   2416c:	280a91ba 	slli	r5,r5,6
   24170:	11c0004c 	andi	r7,r2,1
   24174:	0009883a 	mov	r4,zero
   24178:	280cd27a 	srli	r6,r5,9
   2417c:	003f4606 	br	23e98 <__alt_data_end+0xfffe4a98>
   24180:	00802034 	movhi	r2,128
   24184:	89801034 	orhi	r6,r17,64
   24188:	10bfffc4 	addi	r2,r2,-1
   2418c:	b00f883a 	mov	r7,r22
   24190:	308c703a 	and	r6,r6,r2
   24194:	003f9206 	br	23fe0 <__alt_data_end+0xfffe4be0>

00024198 <__mulsf3>:
   24198:	defff504 	addi	sp,sp,-44
   2419c:	dc000115 	stw	r16,4(sp)
   241a0:	2020d5fa 	srli	r16,r4,23
   241a4:	dd400615 	stw	r21,24(sp)
   241a8:	202ad7fa 	srli	r21,r4,31
   241ac:	dc800315 	stw	r18,12(sp)
   241b0:	04802034 	movhi	r18,128
   241b4:	df000915 	stw	fp,36(sp)
   241b8:	dd000515 	stw	r20,20(sp)
   241bc:	94bfffc4 	addi	r18,r18,-1
   241c0:	dfc00a15 	stw	ra,40(sp)
   241c4:	ddc00815 	stw	r23,32(sp)
   241c8:	dd800715 	stw	r22,28(sp)
   241cc:	dcc00415 	stw	r19,16(sp)
   241d0:	dc400215 	stw	r17,8(sp)
   241d4:	84003fcc 	andi	r16,r16,255
   241d8:	9124703a 	and	r18,r18,r4
   241dc:	a829883a 	mov	r20,r21
   241e0:	af003fcc 	andi	fp,r21,255
   241e4:	80005426 	beq	r16,zero,24338 <__mulsf3+0x1a0>
   241e8:	00803fc4 	movi	r2,255
   241ec:	80802f26 	beq	r16,r2,242ac <__mulsf3+0x114>
   241f0:	91002034 	orhi	r4,r18,128
   241f4:	202490fa 	slli	r18,r4,3
   241f8:	843fe044 	addi	r16,r16,-127
   241fc:	0023883a 	mov	r17,zero
   24200:	002f883a 	mov	r23,zero
   24204:	2804d5fa 	srli	r2,r5,23
   24208:	282cd7fa 	srli	r22,r5,31
   2420c:	01002034 	movhi	r4,128
   24210:	213fffc4 	addi	r4,r4,-1
   24214:	10803fcc 	andi	r2,r2,255
   24218:	2166703a 	and	r19,r4,r5
   2421c:	b1803fcc 	andi	r6,r22,255
   24220:	10004c26 	beq	r2,zero,24354 <__mulsf3+0x1bc>
   24224:	00c03fc4 	movi	r3,255
   24228:	10c04726 	beq	r2,r3,24348 <__mulsf3+0x1b0>
   2422c:	99002034 	orhi	r4,r19,128
   24230:	202690fa 	slli	r19,r4,3
   24234:	10bfe044 	addi	r2,r2,-127
   24238:	0007883a 	mov	r3,zero
   2423c:	80a1883a 	add	r16,r16,r2
   24240:	010003c4 	movi	r4,15
   24244:	1c44b03a 	or	r2,r3,r17
   24248:	b56af03a 	xor	r21,r22,r21
   2424c:	81c00044 	addi	r7,r16,1
   24250:	20806b36 	bltu	r4,r2,24400 <__mulsf3+0x268>
   24254:	100490ba 	slli	r2,r2,2
   24258:	010000b4 	movhi	r4,2
   2425c:	21109b04 	addi	r4,r4,17004
   24260:	1105883a 	add	r2,r2,r4
   24264:	10800017 	ldw	r2,0(r2)
   24268:	1000683a 	jmp	r2
   2426c:	00024400 	call	2440 <__alt_mem_onchip_memory2-0x1dbc0>
   24270:	000242c0 	call	242c <__alt_mem_onchip_memory2-0x1dbd4>
   24274:	000242c0 	call	242c <__alt_mem_onchip_memory2-0x1dbd4>
   24278:	000242bc 	xorhi	zero,zero,2314
   2427c:	000243e4 	muli	zero,zero,2319
   24280:	000243e4 	muli	zero,zero,2319
   24284:	000243d0 	cmplti	zero,zero,2319
   24288:	000242bc 	xorhi	zero,zero,2314
   2428c:	000243e4 	muli	zero,zero,2319
   24290:	000243d0 	cmplti	zero,zero,2319
   24294:	000243e4 	muli	zero,zero,2319
   24298:	000242bc 	xorhi	zero,zero,2314
   2429c:	000243f0 	cmpltui	zero,zero,2319
   242a0:	000243f0 	cmpltui	zero,zero,2319
   242a4:	000243f0 	cmpltui	zero,zero,2319
   242a8:	000244cc 	andi	zero,zero,2323
   242ac:	90003b1e 	bne	r18,zero,2439c <__mulsf3+0x204>
   242b0:	04400204 	movi	r17,8
   242b4:	05c00084 	movi	r23,2
   242b8:	003fd206 	br	24204 <__alt_data_end+0xfffe4e04>
   242bc:	302b883a 	mov	r21,r6
   242c0:	00800084 	movi	r2,2
   242c4:	18802626 	beq	r3,r2,24360 <__mulsf3+0x1c8>
   242c8:	008000c4 	movi	r2,3
   242cc:	1880ab26 	beq	r3,r2,2457c <__mulsf3+0x3e4>
   242d0:	00800044 	movi	r2,1
   242d4:	1880a21e 	bne	r3,r2,24560 <__mulsf3+0x3c8>
   242d8:	a829883a 	mov	r20,r21
   242dc:	0007883a 	mov	r3,zero
   242e0:	0009883a 	mov	r4,zero
   242e4:	18803fcc 	andi	r2,r3,255
   242e8:	100695fa 	slli	r3,r2,23
   242ec:	a0803fcc 	andi	r2,r20,255
   242f0:	100a97fa 	slli	r5,r2,31
   242f4:	00802034 	movhi	r2,128
   242f8:	10bfffc4 	addi	r2,r2,-1
   242fc:	2084703a 	and	r2,r4,r2
   24300:	10c4b03a 	or	r2,r2,r3
   24304:	1144b03a 	or	r2,r2,r5
   24308:	dfc00a17 	ldw	ra,40(sp)
   2430c:	df000917 	ldw	fp,36(sp)
   24310:	ddc00817 	ldw	r23,32(sp)
   24314:	dd800717 	ldw	r22,28(sp)
   24318:	dd400617 	ldw	r21,24(sp)
   2431c:	dd000517 	ldw	r20,20(sp)
   24320:	dcc00417 	ldw	r19,16(sp)
   24324:	dc800317 	ldw	r18,12(sp)
   24328:	dc400217 	ldw	r17,8(sp)
   2432c:	dc000117 	ldw	r16,4(sp)
   24330:	dec00b04 	addi	sp,sp,44
   24334:	f800283a 	ret
   24338:	90000d1e 	bne	r18,zero,24370 <__mulsf3+0x1d8>
   2433c:	04400104 	movi	r17,4
   24340:	05c00044 	movi	r23,1
   24344:	003faf06 	br	24204 <__alt_data_end+0xfffe4e04>
   24348:	9806c03a 	cmpne	r3,r19,zero
   2434c:	18c00084 	addi	r3,r3,2
   24350:	003fba06 	br	2423c <__alt_data_end+0xfffe4e3c>
   24354:	9800141e 	bne	r19,zero,243a8 <__mulsf3+0x210>
   24358:	00c00044 	movi	r3,1
   2435c:	003fb706 	br	2423c <__alt_data_end+0xfffe4e3c>
   24360:	a829883a 	mov	r20,r21
   24364:	00ffffc4 	movi	r3,-1
   24368:	0009883a 	mov	r4,zero
   2436c:	003fdd06 	br	242e4 <__alt_data_end+0xfffe4ee4>
   24370:	9009883a 	mov	r4,r18
   24374:	d9400015 	stw	r5,0(sp)
   24378:	00270ec0 	call	270ec <__clzsi2>
   2437c:	10fffec4 	addi	r3,r2,-5
   24380:	10801d84 	addi	r2,r2,118
   24384:	90e4983a 	sll	r18,r18,r3
   24388:	00a1c83a 	sub	r16,zero,r2
   2438c:	0023883a 	mov	r17,zero
   24390:	002f883a 	mov	r23,zero
   24394:	d9400017 	ldw	r5,0(sp)
   24398:	003f9a06 	br	24204 <__alt_data_end+0xfffe4e04>
   2439c:	04400304 	movi	r17,12
   243a0:	05c000c4 	movi	r23,3
   243a4:	003f9706 	br	24204 <__alt_data_end+0xfffe4e04>
   243a8:	9809883a 	mov	r4,r19
   243ac:	d9800015 	stw	r6,0(sp)
   243b0:	00270ec0 	call	270ec <__clzsi2>
   243b4:	10fffec4 	addi	r3,r2,-5
   243b8:	10801d84 	addi	r2,r2,118
   243bc:	98e6983a 	sll	r19,r19,r3
   243c0:	0085c83a 	sub	r2,zero,r2
   243c4:	0007883a 	mov	r3,zero
   243c8:	d9800017 	ldw	r6,0(sp)
   243cc:	003f9b06 	br	2423c <__alt_data_end+0xfffe4e3c>
   243d0:	01002034 	movhi	r4,128
   243d4:	0029883a 	mov	r20,zero
   243d8:	213fffc4 	addi	r4,r4,-1
   243dc:	00ffffc4 	movi	r3,-1
   243e0:	003fc006 	br	242e4 <__alt_data_end+0xfffe4ee4>
   243e4:	9027883a 	mov	r19,r18
   243e8:	b807883a 	mov	r3,r23
   243ec:	003fb406 	br	242c0 <__alt_data_end+0xfffe4ec0>
   243f0:	9027883a 	mov	r19,r18
   243f4:	e02b883a 	mov	r21,fp
   243f8:	b807883a 	mov	r3,r23
   243fc:	003fb006 	br	242c0 <__alt_data_end+0xfffe4ec0>
   24400:	9004d43a 	srli	r2,r18,16
   24404:	9810d43a 	srli	r8,r19,16
   24408:	94bfffcc 	andi	r18,r18,65535
   2440c:	993fffcc 	andi	r4,r19,65535
   24410:	910d383a 	mul	r6,r18,r4
   24414:	20a7383a 	mul	r19,r4,r2
   24418:	9225383a 	mul	r18,r18,r8
   2441c:	3006d43a 	srli	r3,r6,16
   24420:	1211383a 	mul	r8,r2,r8
   24424:	94e5883a 	add	r18,r18,r19
   24428:	1c87883a 	add	r3,r3,r18
   2442c:	1cc0022e 	bgeu	r3,r19,24438 <__mulsf3+0x2a0>
   24430:	00800074 	movhi	r2,1
   24434:	4091883a 	add	r8,r8,r2
   24438:	1804943a 	slli	r2,r3,16
   2443c:	31bfffcc 	andi	r6,r6,65535
   24440:	1806d43a 	srli	r3,r3,16
   24444:	1185883a 	add	r2,r2,r6
   24448:	102691ba 	slli	r19,r2,6
   2444c:	1a07883a 	add	r3,r3,r8
   24450:	1004d6ba 	srli	r2,r2,26
   24454:	180891ba 	slli	r4,r3,6
   24458:	9826c03a 	cmpne	r19,r19,zero
   2445c:	9884b03a 	or	r2,r19,r2
   24460:	1126b03a 	or	r19,r2,r4
   24464:	9882002c 	andhi	r2,r19,2048
   24468:	10000426 	beq	r2,zero,2447c <__mulsf3+0x2e4>
   2446c:	9804d07a 	srli	r2,r19,1
   24470:	9900004c 	andi	r4,r19,1
   24474:	3821883a 	mov	r16,r7
   24478:	1126b03a 	or	r19,r2,r4
   2447c:	80c01fc4 	addi	r3,r16,127
   24480:	00c0210e 	bge	zero,r3,24508 <__mulsf3+0x370>
   24484:	988001cc 	andi	r2,r19,7
   24488:	10000426 	beq	r2,zero,2449c <__mulsf3+0x304>
   2448c:	988003cc 	andi	r2,r19,15
   24490:	01000104 	movi	r4,4
   24494:	11000126 	beq	r2,r4,2449c <__mulsf3+0x304>
   24498:	9927883a 	add	r19,r19,r4
   2449c:	9882002c 	andhi	r2,r19,2048
   244a0:	10000426 	beq	r2,zero,244b4 <__mulsf3+0x31c>
   244a4:	00be0034 	movhi	r2,63488
   244a8:	10bfffc4 	addi	r2,r2,-1
   244ac:	80c02004 	addi	r3,r16,128
   244b0:	98a6703a 	and	r19,r19,r2
   244b4:	00803f84 	movi	r2,254
   244b8:	10ffa916 	blt	r2,r3,24360 <__alt_data_end+0xfffe4f60>
   244bc:	980891ba 	slli	r4,r19,6
   244c0:	a829883a 	mov	r20,r21
   244c4:	2008d27a 	srli	r4,r4,9
   244c8:	003f8606 	br	242e4 <__alt_data_end+0xfffe4ee4>
   244cc:	9080102c 	andhi	r2,r18,64
   244d0:	10000826 	beq	r2,zero,244f4 <__mulsf3+0x35c>
   244d4:	9880102c 	andhi	r2,r19,64
   244d8:	1000061e 	bne	r2,zero,244f4 <__mulsf3+0x35c>
   244dc:	00802034 	movhi	r2,128
   244e0:	99001034 	orhi	r4,r19,64
   244e4:	10bfffc4 	addi	r2,r2,-1
   244e8:	b029883a 	mov	r20,r22
   244ec:	2088703a 	and	r4,r4,r2
   244f0:	003fba06 	br	243dc <__alt_data_end+0xfffe4fdc>
   244f4:	00802034 	movhi	r2,128
   244f8:	91001034 	orhi	r4,r18,64
   244fc:	10bfffc4 	addi	r2,r2,-1
   24500:	2088703a 	and	r4,r4,r2
   24504:	003fb506 	br	243dc <__alt_data_end+0xfffe4fdc>
   24508:	00800044 	movi	r2,1
   2450c:	10c7c83a 	sub	r3,r2,r3
   24510:	008006c4 	movi	r2,27
   24514:	10ff7016 	blt	r2,r3,242d8 <__alt_data_end+0xfffe4ed8>
   24518:	00800804 	movi	r2,32
   2451c:	10c5c83a 	sub	r2,r2,r3
   24520:	9884983a 	sll	r2,r19,r2
   24524:	98c6d83a 	srl	r3,r19,r3
   24528:	1004c03a 	cmpne	r2,r2,zero
   2452c:	1884b03a 	or	r2,r3,r2
   24530:	10c001cc 	andi	r3,r2,7
   24534:	18000426 	beq	r3,zero,24548 <__mulsf3+0x3b0>
   24538:	10c003cc 	andi	r3,r2,15
   2453c:	01000104 	movi	r4,4
   24540:	19000126 	beq	r3,r4,24548 <__mulsf3+0x3b0>
   24544:	1105883a 	add	r2,r2,r4
   24548:	10c1002c 	andhi	r3,r2,1024
   2454c:	18000626 	beq	r3,zero,24568 <__mulsf3+0x3d0>
   24550:	a829883a 	mov	r20,r21
   24554:	00c00044 	movi	r3,1
   24558:	0009883a 	mov	r4,zero
   2455c:	003f6106 	br	242e4 <__alt_data_end+0xfffe4ee4>
   24560:	3821883a 	mov	r16,r7
   24564:	003fc506 	br	2447c <__alt_data_end+0xfffe507c>
   24568:	100491ba 	slli	r2,r2,6
   2456c:	a829883a 	mov	r20,r21
   24570:	0007883a 	mov	r3,zero
   24574:	1008d27a 	srli	r4,r2,9
   24578:	003f5a06 	br	242e4 <__alt_data_end+0xfffe4ee4>
   2457c:	00802034 	movhi	r2,128
   24580:	99001034 	orhi	r4,r19,64
   24584:	10bfffc4 	addi	r2,r2,-1
   24588:	a829883a 	mov	r20,r21
   2458c:	2088703a 	and	r4,r4,r2
   24590:	003f9206 	br	243dc <__alt_data_end+0xfffe4fdc>

00024594 <__subsf3>:
   24594:	defffc04 	addi	sp,sp,-16
   24598:	280cd5fa 	srli	r6,r5,23
   2459c:	dc000015 	stw	r16,0(sp)
   245a0:	01c02034 	movhi	r7,128
   245a4:	2020d5fa 	srli	r16,r4,23
   245a8:	39ffffc4 	addi	r7,r7,-1
   245ac:	3906703a 	and	r3,r7,r4
   245b0:	dc400115 	stw	r17,4(sp)
   245b4:	394e703a 	and	r7,r7,r5
   245b8:	2022d7fa 	srli	r17,r4,31
   245bc:	dfc00315 	stw	ra,12(sp)
   245c0:	dc800215 	stw	r18,8(sp)
   245c4:	31803fcc 	andi	r6,r6,255
   245c8:	01003fc4 	movi	r4,255
   245cc:	84003fcc 	andi	r16,r16,255
   245d0:	180690fa 	slli	r3,r3,3
   245d4:	2804d7fa 	srli	r2,r5,31
   245d8:	380e90fa 	slli	r7,r7,3
   245dc:	31006d26 	beq	r6,r4,24794 <__subsf3+0x200>
   245e0:	1080005c 	xori	r2,r2,1
   245e4:	8189c83a 	sub	r4,r16,r6
   245e8:	14404f26 	beq	r2,r17,24728 <__subsf3+0x194>
   245ec:	0100770e 	bge	zero,r4,247cc <__subsf3+0x238>
   245f0:	30001e1e 	bne	r6,zero,2466c <__subsf3+0xd8>
   245f4:	38006a1e 	bne	r7,zero,247a0 <__subsf3+0x20c>
   245f8:	188001cc 	andi	r2,r3,7
   245fc:	10000426 	beq	r2,zero,24610 <__subsf3+0x7c>
   24600:	188003cc 	andi	r2,r3,15
   24604:	01000104 	movi	r4,4
   24608:	11000126 	beq	r2,r4,24610 <__subsf3+0x7c>
   2460c:	1907883a 	add	r3,r3,r4
   24610:	1881002c 	andhi	r2,r3,1024
   24614:	10003926 	beq	r2,zero,246fc <__subsf3+0x168>
   24618:	84000044 	addi	r16,r16,1
   2461c:	00803fc4 	movi	r2,255
   24620:	80807526 	beq	r16,r2,247f8 <__subsf3+0x264>
   24624:	180691ba 	slli	r3,r3,6
   24628:	8880004c 	andi	r2,r17,1
   2462c:	180ad27a 	srli	r5,r3,9
   24630:	84003fcc 	andi	r16,r16,255
   24634:	800695fa 	slli	r3,r16,23
   24638:	10803fcc 	andi	r2,r2,255
   2463c:	01002034 	movhi	r4,128
   24640:	213fffc4 	addi	r4,r4,-1
   24644:	100497fa 	slli	r2,r2,31
   24648:	2920703a 	and	r16,r5,r4
   2464c:	80e0b03a 	or	r16,r16,r3
   24650:	8084b03a 	or	r2,r16,r2
   24654:	dfc00317 	ldw	ra,12(sp)
   24658:	dc800217 	ldw	r18,8(sp)
   2465c:	dc400117 	ldw	r17,4(sp)
   24660:	dc000017 	ldw	r16,0(sp)
   24664:	dec00404 	addi	sp,sp,16
   24668:	f800283a 	ret
   2466c:	00803fc4 	movi	r2,255
   24670:	80bfe126 	beq	r16,r2,245f8 <__alt_data_end+0xfffe51f8>
   24674:	39c10034 	orhi	r7,r7,1024
   24678:	008006c4 	movi	r2,27
   2467c:	11007416 	blt	r2,r4,24850 <__subsf3+0x2bc>
   24680:	00800804 	movi	r2,32
   24684:	1105c83a 	sub	r2,r2,r4
   24688:	3884983a 	sll	r2,r7,r2
   2468c:	390ed83a 	srl	r7,r7,r4
   24690:	1008c03a 	cmpne	r4,r2,zero
   24694:	390eb03a 	or	r7,r7,r4
   24698:	19c7c83a 	sub	r3,r3,r7
   2469c:	1881002c 	andhi	r2,r3,1024
   246a0:	10001426 	beq	r2,zero,246f4 <__subsf3+0x160>
   246a4:	04810034 	movhi	r18,1024
   246a8:	94bfffc4 	addi	r18,r18,-1
   246ac:	1ca4703a 	and	r18,r3,r18
   246b0:	9009883a 	mov	r4,r18
   246b4:	00270ec0 	call	270ec <__clzsi2>
   246b8:	10bffec4 	addi	r2,r2,-5
   246bc:	90a4983a 	sll	r18,r18,r2
   246c0:	14005116 	blt	r2,r16,24808 <__subsf3+0x274>
   246c4:	1405c83a 	sub	r2,r2,r16
   246c8:	10c00044 	addi	r3,r2,1
   246cc:	00800804 	movi	r2,32
   246d0:	10c5c83a 	sub	r2,r2,r3
   246d4:	9084983a 	sll	r2,r18,r2
   246d8:	90e4d83a 	srl	r18,r18,r3
   246dc:	0021883a 	mov	r16,zero
   246e0:	1006c03a 	cmpne	r3,r2,zero
   246e4:	90c6b03a 	or	r3,r18,r3
   246e8:	003fc306 	br	245f8 <__alt_data_end+0xfffe51f8>
   246ec:	2000e026 	beq	r4,zero,24a70 <__subsf3+0x4dc>
   246f0:	2007883a 	mov	r3,r4
   246f4:	188001cc 	andi	r2,r3,7
   246f8:	103fc11e 	bne	r2,zero,24600 <__alt_data_end+0xfffe5200>
   246fc:	180ad0fa 	srli	r5,r3,3
   24700:	00c03fc4 	movi	r3,255
   24704:	8880004c 	andi	r2,r17,1
   24708:	80c0031e 	bne	r16,r3,24718 <__subsf3+0x184>
   2470c:	28006d26 	beq	r5,zero,248c4 <__subsf3+0x330>
   24710:	29401034 	orhi	r5,r5,64
   24714:	043fffc4 	movi	r16,-1
   24718:	00c02034 	movhi	r3,128
   2471c:	18ffffc4 	addi	r3,r3,-1
   24720:	28ca703a 	and	r5,r5,r3
   24724:	003fc206 	br	24630 <__alt_data_end+0xfffe5230>
   24728:	01003c0e 	bge	zero,r4,2481c <__subsf3+0x288>
   2472c:	30002126 	beq	r6,zero,247b4 <__subsf3+0x220>
   24730:	01403fc4 	movi	r5,255
   24734:	817fb026 	beq	r16,r5,245f8 <__alt_data_end+0xfffe51f8>
   24738:	39c10034 	orhi	r7,r7,1024
   2473c:	014006c4 	movi	r5,27
   24740:	29007416 	blt	r5,r4,24914 <__subsf3+0x380>
   24744:	01400804 	movi	r5,32
   24748:	290bc83a 	sub	r5,r5,r4
   2474c:	394a983a 	sll	r5,r7,r5
   24750:	390ed83a 	srl	r7,r7,r4
   24754:	2808c03a 	cmpne	r4,r5,zero
   24758:	390eb03a 	or	r7,r7,r4
   2475c:	19c7883a 	add	r3,r3,r7
   24760:	1901002c 	andhi	r4,r3,1024
   24764:	20003826 	beq	r4,zero,24848 <__subsf3+0x2b4>
   24768:	84000044 	addi	r16,r16,1
   2476c:	01003fc4 	movi	r4,255
   24770:	81005426 	beq	r16,r4,248c4 <__subsf3+0x330>
   24774:	1023883a 	mov	r17,r2
   24778:	00bf0034 	movhi	r2,64512
   2477c:	10bfffc4 	addi	r2,r2,-1
   24780:	1900004c 	andi	r4,r3,1
   24784:	1886703a 	and	r3,r3,r2
   24788:	1806d07a 	srli	r3,r3,1
   2478c:	1906b03a 	or	r3,r3,r4
   24790:	003f9906 	br	245f8 <__alt_data_end+0xfffe51f8>
   24794:	383f9226 	beq	r7,zero,245e0 <__alt_data_end+0xfffe51e0>
   24798:	10803fcc 	andi	r2,r2,255
   2479c:	003f9106 	br	245e4 <__alt_data_end+0xfffe51e4>
   247a0:	213fffc4 	addi	r4,r4,-1
   247a4:	203fbc26 	beq	r4,zero,24698 <__alt_data_end+0xfffe5298>
   247a8:	00803fc4 	movi	r2,255
   247ac:	80bfb21e 	bne	r16,r2,24678 <__alt_data_end+0xfffe5278>
   247b0:	003f9106 	br	245f8 <__alt_data_end+0xfffe51f8>
   247b4:	383f9026 	beq	r7,zero,245f8 <__alt_data_end+0xfffe51f8>
   247b8:	213fffc4 	addi	r4,r4,-1
   247bc:	203fe726 	beq	r4,zero,2475c <__alt_data_end+0xfffe535c>
   247c0:	01403fc4 	movi	r5,255
   247c4:	817fdd1e 	bne	r16,r5,2473c <__alt_data_end+0xfffe533c>
   247c8:	003f8b06 	br	245f8 <__alt_data_end+0xfffe51f8>
   247cc:	2000221e 	bne	r4,zero,24858 <__subsf3+0x2c4>
   247d0:	81000044 	addi	r4,r16,1
   247d4:	21003fcc 	andi	r4,r4,255
   247d8:	01400044 	movi	r5,1
   247dc:	2900470e 	bge	r5,r4,248fc <__subsf3+0x368>
